Archive member included because of file (symbol)

../../../../BitCloud/lib/libBc_All_Atmega256rfr2_Atmega256rfr2_Gcc.a(aps.o)
                              All_MegaRf_Atmega256rfr2_8Mhz_Gcc/Obj/sysTaskManager.o (APS_TaskHandler)
../../../../BitCloud/lib/libBc_All_Atmega256rfr2_Atmega256rfr2_Gcc.a(macenvPib.o)
                              All_MegaRf_Atmega256rfr2_8Mhz_Gcc/Obj/sysUtils.o (MAC_GetExtAddr)
../../../../BitCloud/lib/libBc_All_Atmega256rfr2_Atmega256rfr2_Gcc.a(machwdManager.o)
                              All_MegaRf_Atmega256rfr2_8Mhz_Gcc/Obj/sysUtils.o (RF_RandomReq)
../../../../BitCloud/lib/libBc_All_Atmega256rfr2_Atmega256rfr2_Gcc.a(machwdRegAccessHandler.o)
                              ../../../../BitCloud/lib/libBc_All_Atmega256rfr2_Atmega256rfr2_Gcc.a(machwdManager.o) (machwdRegAccessReqHandler)
../../../../BitCloud/lib/libBc_All_Atmega256rfr2_Atmega256rfr2_Gcc.a(machwdResetHandler.o)
                              ../../../../BitCloud/lib/libBc_All_Atmega256rfr2_Atmega256rfr2_Gcc.a(machwdManager.o) (machwdReset)
../../../../BitCloud/lib/libBc_All_Atmega256rfr2_Atmega256rfr2_Gcc.a(machwdRndHandler.o)
                              ../../../../BitCloud/lib/libBc_All_Atmega256rfr2_Atmega256rfr2_Gcc.a(machwdManager.o) (machwdRndReqHandler)
../../../../BitCloud/lib/libBc_All_Atmega256rfr2_Atmega256rfr2_Gcc.a(machwdRxBuffer.o)
                              ../../../../BitCloud/lib/libBc_All_Atmega256rfr2_Atmega256rfr2_Gcc.a(machwdResetHandler.o) (machwdResetRxBuffers)
../../../../BitCloud/lib/libBc_All_Atmega256rfr2_Atmega256rfr2_Gcc.a(machwdRxFrameHandler.o)
                              ../../../../BitCloud/lib/libBc_All_Atmega256rfr2_Atmega256rfr2_Gcc.a(machwdManager.o) (machwdDataReqIndTaskHandler)
../../../../BitCloud/lib/libBc_All_Atmega256rfr2_Atmega256rfr2_Gcc.a(machwdSetHandler.o)
                              ../../../../BitCloud/lib/libBc_All_Atmega256rfr2_Atmega256rfr2_Gcc.a(machwdManager.o) (machwdSetReqHandler)
../../../../BitCloud/lib/libBc_All_Atmega256rfr2_Atmega256rfr2_Gcc.a(machwdTrxCtrl.o)
                              ../../../../BitCloud/lib/libBc_All_Atmega256rfr2_Atmega256rfr2_Gcc.a(machwdSetHandler.o) (machwdSendTrxCmd)
../../../../BitCloud/lib/libBc_All_Atmega256rfr2_Atmega256rfr2_Gcc.a(machwdTrxHandler.o)
                              ../../../../BitCloud/lib/libBc_All_Atmega256rfr2_Atmega256rfr2_Gcc.a(machwdManager.o) (machwdTrxReqHandler)
../../../../BitCloud/lib/libBc_All_Atmega256rfr2_Atmega256rfr2_Gcc.a(machwdTxFrameHandler.o)
                              ../../../../BitCloud/lib/libBc_All_Atmega256rfr2_Atmega256rfr2_Gcc.a(machwdManager.o) (machwdTxFrameHandlerSubState)
../../../../BitCloud/lib/libBc_All_Atmega256rfr2_Atmega256rfr2_Gcc.a(machwiManager.o)
                              All_MegaRf_Atmega256rfr2_8Mhz_Gcc/Obj/sysTaskManager.o (MAC_HWI_TaskHandler)
../../../../BitCloud/lib/libBc_All_Atmega256rfr2_Atmega256rfr2_Gcc.a(machwiOrphanHandler.o)
                              ../../../../BitCloud/lib/libBc_All_Atmega256rfr2_Atmega256rfr2_Gcc.a(machwiManager.o) (machwiOrphanRespHandler)
../../../../BitCloud/lib/libBc_All_Atmega256rfr2_Atmega256rfr2_Gcc.a(machwiPanServer.o)
                              ../../../../BitCloud/lib/libBc_All_Atmega256rfr2_Atmega256rfr2_Gcc.a(machwdRxFrameHandler.o) (MACHWD_DataInd)
../../../../BitCloud/lib/libBc_All_Atmega256rfr2_Atmega256rfr2_Gcc.a(machwiPollHandler.o)
                              ../../../../BitCloud/lib/libBc_All_Atmega256rfr2_Atmega256rfr2_Gcc.a(machwiPanServer.o) (machwiPollInd)
../../../../BitCloud/lib/libBc_All_Atmega256rfr2_Atmega256rfr2_Gcc.a(machwiPurgeHandler.o)
                              ../../../../BitCloud/lib/libBc_All_Atmega256rfr2_Atmega256rfr2_Gcc.a(machwiManager.o) (machwiPurgeReqHandler)
../../../../BitCloud/lib/libBc_All_Atmega256rfr2_Atmega256rfr2_Gcc.a(machwiResetHandler.o)
                              ../../../../BitCloud/lib/libBc_All_Atmega256rfr2_Atmega256rfr2_Gcc.a(machwiManager.o) (machwiResetReqHandler)
../../../../BitCloud/lib/libBc_All_Atmega256rfr2_Atmega256rfr2_Gcc.a(machwiRxEnableHandler.o)
                              ../../../../BitCloud/lib/libBc_All_Atmega256rfr2_Atmega256rfr2_Gcc.a(machwiManager.o) (machwiRxEnableReqHandler)
../../../../BitCloud/lib/libBc_All_Atmega256rfr2_Atmega256rfr2_Gcc.a(machwiScanHandler.o)
                              ../../../../BitCloud/lib/libBc_All_Atmega256rfr2_Atmega256rfr2_Gcc.a(machwiManager.o) (machwiScanReqHandler)
../../../../BitCloud/lib/libBc_All_Atmega256rfr2_Atmega256rfr2_Gcc.a(machwiSetGetHandler.o)
                              ../../../../BitCloud/lib/libBc_All_Atmega256rfr2_Atmega256rfr2_Gcc.a(machwiManager.o) (machwiGetReqHandler)
../../../../BitCloud/lib/libBc_All_Atmega256rfr2_Atmega256rfr2_Gcc.a(machwiStartHandler.o)
                              ../../../../BitCloud/lib/libBc_All_Atmega256rfr2_Atmega256rfr2_Gcc.a(machwiManager.o) (machwiStartReqHandler)
../../../../BitCloud/lib/libBc_All_Atmega256rfr2_Atmega256rfr2_Gcc.a(machwiSwitchRxCtrl.o)
                              ../../../../BitCloud/lib/libBc_All_Atmega256rfr2_Atmega256rfr2_Gcc.a(machwiPollHandler.o) (machwiSwitchRxAccordToRxOnWhenIdle)
../../../../BitCloud/lib/libBc_All_Atmega256rfr2_Atmega256rfr2_Gcc.a(machwiTransactionHandler.o)
                              ../../../../BitCloud/lib/libBc_All_Atmega256rfr2_Atmega256rfr2_Gcc.a(machwiResetHandler.o) (machwiResetTransactionHandler)
../../../../BitCloud/lib/libBc_All_Atmega256rfr2_Atmega256rfr2_Gcc.a(machwiTransactionQueue.o)
                              ../../../../BitCloud/lib/libBc_All_Atmega256rfr2_Atmega256rfr2_Gcc.a(machwiManager.o) (machwiGetActivatedTransactionFromQueue)
../../../../BitCloud/lib/libBc_All_Atmega256rfr2_Atmega256rfr2_Gcc.a(nwk.o)
                              ../../../../BitCloud/lib/libBc_All_Atmega256rfr2_Atmega256rfr2_Gcc.a(aps.o) (NWK_AddGroup)
../../../../BitCloud/lib/libBc_All_Atmega256rfr2_Atmega256rfr2_Gcc.a(phyAntDiversity.o)
                              ../../../../BitCloud/lib/libBc_All_Atmega256rfr2_Atmega256rfr2_Gcc.a(machwdTxFrameHandler.o) (PHY_SelectAntenna)
../../../../BitCloud/lib/libBc_All_Atmega256rfr2_Atmega256rfr2_Gcc.a(phyInit.o)
                              All_MegaRf_Atmega256rfr2_8Mhz_Gcc/Obj/sysTaskManager.o (RF_Init)
../../../../BitCloud/lib/libBc_All_Atmega256rfr2_Atmega256rfr2_Gcc.a(phyRegAccess.o)
                              ../../../../BitCloud/lib/libBc_All_Atmega256rfr2_Atmega256rfr2_Gcc.a(machwdRegAccessHandler.o) (PHY_RegWriteReq)
../../../../BitCloud/lib/libBc_All_Atmega256rfr2_Atmega256rfr2_Gcc.a(phyReset.o)
                              ../../../../BitCloud/lib/libBc_All_Atmega256rfr2_Atmega256rfr2_Gcc.a(machwdResetHandler.o) (PHY_Reset)
../../../../BitCloud/lib/libBc_All_Atmega256rfr2_Atmega256rfr2_Gcc.a(phyRfIrqDispatcher.o)
                              ../../../../BitCloud/lib/libBc_All_Atmega256rfr2_Atmega256rfr2_Gcc.a(phyAntDiversity.o) (phyRestoreRfIrqMask)
../../../../BitCloud/lib/libBc_All_Atmega256rfr2_Atmega256rfr2_Gcc.a(phyRnd.o)
                              ../../../../BitCloud/lib/libBc_All_Atmega256rfr2_Atmega256rfr2_Gcc.a(machwdResetHandler.o) (PHY_RndReq)
../../../../BitCloud/lib/libBc_All_Atmega256rfr2_Atmega256rfr2_Gcc.a(phySet.o)
                              ../../../../BitCloud/lib/libBc_All_Atmega256rfr2_Atmega256rfr2_Gcc.a(machwdResetHandler.o) (PHY_SetReq)
../../../../BitCloud/lib/libBc_All_Atmega256rfr2_Atmega256rfr2_Gcc.a(phySetTrxState.o)
                              ../../../../BitCloud/lib/libBc_All_Atmega256rfr2_Atmega256rfr2_Gcc.a(machwdTrxCtrl.o) (PHY_SetTrxStateReq)
../../../../BitCloud/lib/libBc_All_Atmega256rfr2_Atmega256rfr2_Gcc.a(phyStateMachine.o)
                              ../../../../BitCloud/lib/libBc_All_Atmega256rfr2_Atmega256rfr2_Gcc.a(phyAntDiversity.o) (__wasRequest)
../../../../BitCloud/lib/libBc_All_Atmega256rfr2_Atmega256rfr2_Gcc.a(phyTxFrame.o)
                              ../../../../BitCloud/lib/libBc_All_Atmega256rfr2_Atmega256rfr2_Gcc.a(machwdTxFrameHandler.o) (PHY_DataReq)
../../../../BitCloud/lib/libBc_All_Atmega256rfr2_Atmega256rfr2_Gcc.a(phyTxPowerConverter.o)
                              ../../../../BitCloud/lib/libBc_All_Atmega256rfr2_Atmega256rfr2_Gcc.a(phySet.o) (PHY_ConvertTxPowerFromDbm)
../../../../BitCloud/lib/libBc_All_Atmega256rfr2_Atmega256rfr2_Gcc.a(zdo.o)
                              ../../../../BitCloud/lib/libBc_All_Atmega256rfr2_Atmega256rfr2_Gcc.a(aps.o) (ZDO_ResolveAddrReq)
../../../../BitCloud/lib/libBc_All_Atmega256rfr2_Atmega256rfr2_Gcc.a(macMem.o)
                              ../../../../BitCloud/lib/libBc_All_Atmega256rfr2_Atmega256rfr2_Gcc.a(machwdRxBuffer.o) (macMem)
../../../../BitCloud/lib/libBc_All_Atmega256rfr2_Atmega256rfr2_Gcc.a(machwdBatMonHandler.o)
                              ../../../../BitCloud/lib/libBc_All_Atmega256rfr2_Atmega256rfr2_Gcc.a(machwdManager.o) (machwdBatMonReqHandler)
../../../../BitCloud/lib/libBc_All_Atmega256rfr2_Atmega256rfr2_Gcc.a(machwdCalibHandler.o)
                              ../../../../BitCloud/lib/libBc_All_Atmega256rfr2_Atmega256rfr2_Gcc.a(machwdManager.o) (machwdCalibReqHandler)
../../../../BitCloud/lib/libBc_All_Atmega256rfr2_Atmega256rfr2_Gcc.a(machwdEdHandler.o)
                              ../../../../BitCloud/lib/libBc_All_Atmega256rfr2_Atmega256rfr2_Gcc.a(machwdManager.o) (machwdEdReqHandler)
../../../../BitCloud/lib/libBc_All_Atmega256rfr2_Atmega256rfr2_Gcc.a(machwdFrameRoutine.o)
                              ../../../../BitCloud/lib/libBc_All_Atmega256rfr2_Atmega256rfr2_Gcc.a(machwdRxFrameHandler.o) (machwdParseFrame)
../../../../BitCloud/lib/libBc_All_Atmega256rfr2_Atmega256rfr2_Gcc.a(machwdHandlerCtrl.o)
                              ../../../../BitCloud/lib/libBc_All_Atmega256rfr2_Atmega256rfr2_Gcc.a(machwdManager.o) (machwdGetHandlerId)
../../../../BitCloud/lib/libBc_All_Atmega256rfr2_Atmega256rfr2_Gcc.a(machwiAssociateHandler.o)
                              ../../../../BitCloud/lib/libBc_All_Atmega256rfr2_Atmega256rfr2_Gcc.a(machwiResetHandler.o) (machwiResetAssociateHandler)
../../../../BitCloud/lib/libBc_All_Atmega256rfr2_Atmega256rfr2_Gcc.a(machwiBanNode.o)
                              ../../../../BitCloud/lib/libBc_All_Atmega256rfr2_Atmega256rfr2_Gcc.a(machwiPanServer.o) (MAC_IsBannedShortAddr)
../../../../BitCloud/lib/libBc_All_Atmega256rfr2_Atmega256rfr2_Gcc.a(machwiBeaconHandler.o)
                              ../../../../BitCloud/lib/libBc_All_Atmega256rfr2_Atmega256rfr2_Gcc.a(machwiManager.o) (machwiSendBeacon)
../../../../BitCloud/lib/libBc_All_Atmega256rfr2_Atmega256rfr2_Gcc.a(machwiDataHandler.o)
                              ../../../../BitCloud/lib/libBc_All_Atmega256rfr2_Atmega256rfr2_Gcc.a(machwiOrphanHandler.o) (machwiConvertmachwdDataConfirmTypes)
../../../../BitCloud/lib/libBc_All_Atmega256rfr2_Atmega256rfr2_Gcc.a(machwiTransactionHash.o)
                              ../../../../BitCloud/lib/libBc_All_Atmega256rfr2_Atmega256rfr2_Gcc.a(machwiTransactionQueue.o) (machwiTransctionHashInsert)
../../../../BitCloud/lib/libBc_All_Atmega256rfr2_Atmega256rfr2_Gcc.a(phyBatMon.o)
                              ../../../../BitCloud/lib/libBc_All_Atmega256rfr2_Atmega256rfr2_Gcc.a(machwdBatMonHandler.o) (PHY_BatMonReq)
../../../../BitCloud/lib/libBc_All_Atmega256rfr2_Atmega256rfr2_Gcc.a(phyCalib.o)
                              ../../../../BitCloud/lib/libBc_All_Atmega256rfr2_Atmega256rfr2_Gcc.a(machwdCalibHandler.o) (PHY_CalibReq)
../../../../BitCloud/lib/libBc_All_Atmega256rfr2_Atmega256rfr2_Gcc.a(phyEd.o)
                              ../../../../BitCloud/lib/libBc_All_Atmega256rfr2_Atmega256rfr2_Gcc.a(machwdEdHandler.o) (PHY_EdReq)
../../../../BitCloud/lib/libBc_All_Atmega256rfr2_Atmega256rfr2_Gcc.a(phyRxTxIndicator.o)
                              ../../../../BitCloud/lib/libBc_All_Atmega256rfr2_Atmega256rfr2_Gcc.a(phySet.o) (phyPllTxFilterON)
../../../../BitCloud/lib/libHAL_MegaRf_Atmega256rfr2_8Mhz_Gcc.a(halDelay.o)
                              ../../../../BitCloud/lib/libBc_All_Atmega256rfr2_Atmega256rfr2_Gcc.a(phyInit.o) (HAL_Delay)
../../../../BitCloud/lib/libHAL_MegaRf_Atmega256rfr2_8Mhz_Gcc.a(halAppClock.o)
                              ../../../../BitCloud/lib/libBc_All_Atmega256rfr2_Atmega256rfr2_Gcc.a(aps.o) (halGetTimeOfAppTimer)
../../../../BitCloud/lib/libHAL_MegaRf_Atmega256rfr2_8Mhz_Gcc.a(halSleep.o)
                              All_MegaRf_Atmega256rfr2_8Mhz_Gcc/Obj/sysIdleHandler.o (HAL_IdleMode)
../../../../BitCloud/lib/libHAL_MegaRf_Atmega256rfr2_8Mhz_Gcc.a(calibration.o)
                              ../../../../BitCloud/lib/libHAL_MegaRf_Atmega256rfr2_8Mhz_Gcc.a(halSleep.o) (halStartingCalibrate)
../../../../BitCloud/lib/libHAL_MegaRf_Atmega256rfr2_8Mhz_Gcc.a(halInit.o)
                              All_MegaRf_Atmega256rfr2_8Mhz_Gcc/Obj/sysTaskManager.o (HAL_Init)
../../../../BitCloud/lib/libHAL_MegaRf_Atmega256rfr2_8Mhz_Gcc.a(halRfCtrl.o)
                              ../../../../BitCloud/lib/libBc_All_Atmega256rfr2_Atmega256rfr2_Gcc.a(phyInit.o) (HAL_EnableRxTxSwitcher)
../../../../BitCloud/lib/libHAL_MegaRf_Atmega256rfr2_8Mhz_Gcc.a(halMacIsr.o)
                              ../../../../BitCloud/lib/libBc_All_Atmega256rfr2_Atmega256rfr2_Gcc.a(phyInit.o) (HAL_InitMacIsr)
../../../../BitCloud/lib/libHAL_MegaRf_Atmega256rfr2_8Mhz_Gcc.a(halW1.o)
                              ../../../../BitCloud/lib/libHAL_MegaRf_Atmega256rfr2_8Mhz_Gcc.a(halDelay.o) (__delay_us)
../../../../BitCloud/lib/libHAL_MegaRf_Atmega256rfr2_8Mhz_Gcc.a(halCalibration.o)
                              ../../../../BitCloud/lib/libHAL_MegaRf_Atmega256rfr2_8Mhz_Gcc.a(calibration.o) (halMeasurement)
../../../../BitCloud/lib/libHAL_MegaRf_Atmega256rfr2_8Mhz_Gcc.a(appTimer.o)
                              ../../../../BitCloud/lib/libHAL_MegaRf_Atmega256rfr2_8Mhz_Gcc.a(halAppClock.o) (halGetTimeToNextAppTimer)
../../../../BitCloud/lib/libHAL_MegaRf_Atmega256rfr2_8Mhz_Gcc.a(halTaskManager.o)
                              All_MegaRf_Atmega256rfr2_8Mhz_Gcc/Obj/usbFifoVirtualUsart.o (extHandler)
../../../../BitCloud/lib/libHAL_MegaRf_Atmega256rfr2_8Mhz_Gcc.a(usart.o)
                              ../../../../BitCloud/lib/libHAL_MegaRf_Atmega256rfr2_8Mhz_Gcc.a(halTaskManager.o) (halSigUsartHandler)
../../../../BitCloud/lib/libHAL_MegaRf_Atmega256rfr2_8Mhz_Gcc.a(irq.o)
                              All_MegaRf_Atmega256rfr2_8Mhz_Gcc/Obj/usbFifoFT245RL.o (HAL_RegisterIrq)
../../../../BitCloud/lib/libHAL_MegaRf_Atmega256rfr2_8Mhz_Gcc.a(i2cPacket.o)
                              ../../../../BitCloud/lib/libHAL_MegaRf_Atmega256rfr2_8Mhz_Gcc.a(halTaskManager.o) (halSig2WireSerialHandler)
../../../../BitCloud/lib/libHAL_MegaRf_Atmega256rfr2_8Mhz_Gcc.a(eeprom.o)
                              All_MegaRf_Atmega256rfr2_8Mhz_Gcc/Obj/stdPdsWriteData.o (HAL_ReadEeprom)
../../../../BitCloud/lib/libHAL_MegaRf_Atmega256rfr2_8Mhz_Gcc.a(timer.o)
                              ../../../../BitCloud/lib/libHAL_MegaRf_Atmega256rfr2_8Mhz_Gcc.a(appTimer.o) (halAddTimer)
../../../../BitCloud/lib/libHAL_MegaRf_Atmega256rfr2_8Mhz_Gcc.a(adc.o)
                              ../../../../BitCloud/lib/libHAL_MegaRf_Atmega256rfr2_8Mhz_Gcc.a(halTaskManager.o) (halSigAdcHandler)
../../../../BitCloud/lib/libHAL_MegaRf_Atmega256rfr2_8Mhz_Gcc.a(spi.o)
                              ../../../../BitCloud/lib/libHAL_MegaRf_Atmega256rfr2_8Mhz_Gcc.a(halTaskManager.o) (halSpiRxByteComplete)
../../../../BitCloud/lib/libHAL_MegaRf_Atmega256rfr2_8Mhz_Gcc.a(sleep.o)
                              All_MegaRf_Atmega256rfr2_8Mhz_Gcc/Obj/sysSleep.o (HAL_StartSystemSleep)
../../../../BitCloud/lib/libHAL_MegaRf_Atmega256rfr2_8Mhz_Gcc.a(halSleepTimerClock.o)
                              ../../../../BitCloud/lib/libHAL_MegaRf_Atmega256rfr2_8Mhz_Gcc.a(halSleep.o) (halStartSleepTimerClock)
../../../../BitCloud/lib/libHAL_MegaRf_Atmega256rfr2_8Mhz_Gcc.a(halSecurityModule.o)
                              ../../../../BitCloud/lib/libHAL_MegaRf_Atmega256rfr2_8Mhz_Gcc.a(halTaskManager.o) (halSmRequestHandler)
../../../../BitCloud/lib/libHAL_MegaRf_Atmega256rfr2_8Mhz_Gcc.a(halClkCtrl.o)
                              ../../../../BitCloud/lib/libHAL_MegaRf_Atmega256rfr2_8Mhz_Gcc.a(halInit.o) (halInitFreq)
../../../../BitCloud/lib/libHAL_MegaRf_Atmega256rfr2_8Mhz_Gcc.a(halUsart.o)
                              ../../../../BitCloud/lib/libHAL_MegaRf_Atmega256rfr2_8Mhz_Gcc.a(usart.o) (halSetUsartConfig)
../../../../BitCloud/lib/libHAL_MegaRf_Atmega256rfr2_8Mhz_Gcc.a(halIrq.o)
                              ../../../../BitCloud/lib/libHAL_MegaRf_Atmega256rfr2_8Mhz_Gcc.a(halInit.o) (halSetIrqConfig)
../../../../BitCloud/lib/libHAL_MegaRf_Atmega256rfr2_8Mhz_Gcc.a(halTwi.o)
                              ../../../../BitCloud/lib/libHAL_MegaRf_Atmega256rfr2_8Mhz_Gcc.a(i2cPacket.o) (halInitI2c)
../../../../BitCloud/lib/libHAL_MegaRf_Atmega256rfr2_8Mhz_Gcc.a(halEeprom.o)
                              ../../../../BitCloud/lib/libHAL_MegaRf_Atmega256rfr2_8Mhz_Gcc.a(eeprom.o) (halEepromWrite)
../../../../BitCloud/lib/libHAL_MegaRf_Atmega256rfr2_8Mhz_Gcc.a(halAdc.o)
                              ../../../../BitCloud/lib/libHAL_MegaRf_Atmega256rfr2_8Mhz_Gcc.a(adc.o) (halOpenAdc)
../../../../BitCloud/lib/libHAL_MegaRf_Atmega256rfr2_8Mhz_Gcc.a(halSpi.o)
                              ../../../../BitCloud/lib/libHAL_MegaRf_Atmega256rfr2_8Mhz_Gcc.a(spi.o) (halSetUsartSpiConfig)
../../../../BitCloud/lib/libHAL_MegaRf_Atmega256rfr2_8Mhz_Gcc.a(sleepTimer.o)
                              ../../../../BitCloud/lib/libHAL_MegaRf_Atmega256rfr2_8Mhz_Gcc.a(sleep.o) (HAL_StartSleepTimer)
../../../../BitCloud/lib/libBc_All_Atmega256rfr2_Atmega256rfr2_Gcc.a(phyRtimerIrqDispatcher.o)
                              ../../../../BitCloud/lib/libHAL_MegaRf_Atmega256rfr2_8Mhz_Gcc.a(halMacIsr.o) (phyDispatcheRTimerEvent)
c:/program files (x86)/atmel/atmel toolchain/avr8 gcc/native/3.4.1061/avr8-gnu-toolchain/bin/../lib/gcc/avr/4.8.1/avr6\libgcc.a(_mulsi3.o)
                              ../../../../BitCloud/lib/libBc_All_Atmega256rfr2_Atmega256rfr2_Gcc.a(aps.o) (__mulsi3)
c:/program files (x86)/atmel/atmel toolchain/avr8 gcc/native/3.4.1061/avr8-gnu-toolchain/bin/../lib/gcc/avr/4.8.1/avr6\libgcc.a(_udivmodqi4.o)
                              ../../../../BitCloud/lib/libBc_All_Atmega256rfr2_Atmega256rfr2_Gcc.a(aps.o) (__udivmodqi4)
c:/program files (x86)/atmel/atmel toolchain/avr8 gcc/native/3.4.1061/avr8-gnu-toolchain/bin/../lib/gcc/avr/4.8.1/avr6\libgcc.a(_udivmodhi4.o)
                              All_MegaRf_Atmega256rfr2_8Mhz_Gcc/Obj/stdPdsInit.o (__udivmodhi4)
c:/program files (x86)/atmel/atmel toolchain/avr8 gcc/native/3.4.1061/avr8-gnu-toolchain/bin/../lib/gcc/avr/4.8.1/avr6\libgcc.a(_divmodhi4.o)
                              All_MegaRf_Atmega256rfr2_8Mhz_Gcc/Obj/usartManager.o (__divmodhi4)
c:/program files (x86)/atmel/atmel toolchain/avr8 gcc/native/3.4.1061/avr8-gnu-toolchain/bin/../lib/gcc/avr/4.8.1/avr6\libgcc.a(_udivmodsi4.o)
                              All_MegaRf_Atmega256rfr2_8Mhz_Gcc/Obj/usartManager.o (__udivmodsi4)
c:/program files (x86)/atmel/atmel toolchain/avr8 gcc/native/3.4.1061/avr8-gnu-toolchain/bin/../lib/gcc/avr/4.8.1/avr6\libgcc.a(_divmodsi4.o)
                              All_MegaRf_Atmega256rfr2_8Mhz_Gcc/Obj/usartManager.o (__divmodsi4)
c:/program files (x86)/atmel/atmel toolchain/avr8 gcc/native/3.4.1061/avr8-gnu-toolchain/bin/../lib/gcc/avr/4.8.1/avr6\libgcc.a(_negsi2.o)
                              c:/program files (x86)/atmel/atmel toolchain/avr8 gcc/native/3.4.1061/avr8-gnu-toolchain/bin/../lib/gcc/avr/4.8.1/avr6\libgcc.a(_divmodsi4.o) (__negsi2)
c:/program files (x86)/atmel/atmel toolchain/avr8 gcc/native/3.4.1061/avr8-gnu-toolchain/bin/../lib/gcc/avr/4.8.1/avr6\libgcc.a(_exit.o)
                              c:/program files (x86)/atmel/atmel toolchain/avr8 gcc/native/3.4.1061/avr8-gnu-toolchain/bin/../lib/gcc/avr/4.8.1/../../../../avr/lib/avr6/crtm256rfr2.o (exit)
c:/program files (x86)/atmel/atmel toolchain/avr8 gcc/native/3.4.1061/avr8-gnu-toolchain/bin/../lib/gcc/avr/4.8.1/avr6\libgcc.a(_tablejump.o)
                              ../../../../BitCloud/lib/libBc_All_Atmega256rfr2_Atmega256rfr2_Gcc.a(macenvPib.o) (__tablejump2__)
c:/program files (x86)/atmel/atmel toolchain/avr8 gcc/native/3.4.1061/avr8-gnu-toolchain/bin/../lib/gcc/avr/4.8.1/avr6\libgcc.a(_copy_data.o)
                              All_MegaRf_Atmega256rfr2_8Mhz_Gcc/Obj/app.o (__do_copy_data)
c:/program files (x86)/atmel/atmel toolchain/avr8 gcc/native/3.4.1061/avr8-gnu-toolchain/bin/../lib/gcc/avr/4.8.1/avr6\libgcc.a(_clear_bss.o)
                              All_MegaRf_Atmega256rfr2_8Mhz_Gcc/Obj/app.o (__do_clear_bss)
c:/program files (x86)/atmel/atmel toolchain/avr8 gcc/native/3.4.1061/avr8-gnu-toolchain/bin/../lib/gcc/avr/4.8.1/avr6\libgcc.a(_umulhisi3.o)
                              ../../../../BitCloud/lib/libBc_All_Atmega256rfr2_Atmega256rfr2_Gcc.a(aps.o) (__umulhisi3)
c:/program files (x86)/atmel/atmel toolchain/avr8 gcc/native/3.4.1061/avr8-gnu-toolchain/bin/../lib/gcc/avr/4.8.1/avr6\libgcc.a(_usmulhisi3.o)
                              ../../../../BitCloud/lib/libBc_All_Atmega256rfr2_Atmega256rfr2_Gcc.a(aps.o) (__usmulhisi3)
c:/program files (x86)/atmel/atmel toolchain/avr8 gcc/native/3.4.1061/avr8-gnu-toolchain/bin/../lib/gcc/avr/4.8.1/avr6\libgcc.a(_muluhisi3.o)
                              ../../../../BitCloud/lib/libBc_All_Atmega256rfr2_Atmega256rfr2_Gcc.a(aps.o) (__muluhisi3)
c:/program files (x86)/atmel/atmel toolchain/avr8 gcc/native/3.4.1061/avr8-gnu-toolchain/bin/../lib/gcc/avr/4.8.1/avr6\libgcc.a(_mulshisi3.o)
                              ../../../../BitCloud/lib/libBc_All_Atmega256rfr2_Atmega256rfr2_Gcc.a(aps.o) (__mulshisi3)
c:/program files (x86)/atmel/atmel toolchain/avr8 gcc/native/3.4.1061/avr8-gnu-toolchain/bin/../lib/gcc/avr/4.8.1/avr6\libgcc.a(_umulsidi3.o)
                              ../../../../BitCloud/lib/libHAL_MegaRf_Atmega256rfr2_8Mhz_Gcc.a(halAppClock.o) (__umulsidi3)
c:/program files (x86)/atmel/atmel toolchain/avr8 gcc/native/3.4.1061/avr8-gnu-toolchain/bin/../lib/gcc/avr/4.8.1/avr6\libgcc.a(_prologue.o)
                              All_MegaRf_Atmega256rfr2_8Mhz_Gcc/Obj/usartManager.o (__prologue_saves__)
c:/program files (x86)/atmel/atmel toolchain/avr8 gcc/native/3.4.1061/avr8-gnu-toolchain/bin/../lib/gcc/avr/4.8.1/avr6\libgcc.a(_epilogue.o)
                              All_MegaRf_Atmega256rfr2_8Mhz_Gcc/Obj/usartManager.o (__epilogue_restores__)
c:/program files (x86)/atmel/atmel toolchain/avr8 gcc/native/3.4.1061/avr8-gnu-toolchain/bin/../lib/gcc/avr/4.8.1/avr6\libgcc.a(_ashldi3.o)
                              ../../../../BitCloud/lib/libHAL_MegaRf_Atmega256rfr2_8Mhz_Gcc.a(appTimer.o) (__ashldi3)
c:/program files (x86)/atmel/atmel toolchain/avr8 gcc/native/3.4.1061/avr8-gnu-toolchain/bin/../lib/gcc/avr/4.8.1/avr6\libgcc.a(_ashrdi3.o)
                              All_MegaRf_Atmega256rfr2_8Mhz_Gcc/Obj/usartManager.o (__lshrdi3)
c:/program files (x86)/atmel/atmel toolchain/avr8 gcc/native/3.4.1061/avr8-gnu-toolchain/bin/../lib/gcc/avr/4.8.1/avr6\libgcc.a(_adddi3.o)
                              ../../../../BitCloud/lib/libHAL_MegaRf_Atmega256rfr2_8Mhz_Gcc.a(halAppClock.o) (__adddi3)
c:/program files (x86)/atmel/atmel toolchain/avr8 gcc/native/3.4.1061/avr8-gnu-toolchain/bin/../lib/gcc/avr/4.8.1/avr6\libgcc.a(_subdi3.o)
                              ../../../../BitCloud/lib/libHAL_MegaRf_Atmega256rfr2_8Mhz_Gcc.a(timer.o) (__subdi3)
c:/program files (x86)/atmel/atmel toolchain/avr8 gcc/native/3.4.1061/avr8-gnu-toolchain/bin/../lib/gcc/avr/4.8.1/avr6\libgcc.a(_cmpdi2.o)
                              ../../../../BitCloud/lib/libBc_All_Atmega256rfr2_Atmega256rfr2_Gcc.a(machwiPollHandler.o) (__cmpdi2)
c:/program files (x86)/atmel/atmel toolchain/avr8 gcc/native/3.4.1061/avr8-gnu-toolchain/bin/../lib/gcc/avr/4.8.1/avr6\libgcc.a(_cmpdi2_s8.o)
                              All_MegaRf_Atmega256rfr2_8Mhz_Gcc/Obj/usartManager.o (__cmpdi2_s8)
c:/program files (x86)/atmel/atmel toolchain/avr8 gcc/native/3.4.1061/avr8-gnu-toolchain/bin/../lib/gcc/avr/4.8.1/avr6\libgcc.a(_muldi3_6.o)
                              c:/program files (x86)/atmel/atmel toolchain/avr8 gcc/native/3.4.1061/avr8-gnu-toolchain/bin/../lib/gcc/avr/4.8.1/avr6\libgcc.a(_umulsidi3.o) (__muldi3_6)
c:/program files (x86)/atmel/atmel toolchain/avr8 gcc/native/3.4.1061/avr8-gnu-toolchain/bin/../lib/gcc/avr/4.8.1/../../../../avr/lib/avr6\libc.a(rand.o)
                              All_MegaRf_Atmega256rfr2_8Mhz_Gcc/Obj/sysUtils.o (rand)
c:/program files (x86)/atmel/atmel toolchain/avr8 gcc/native/3.4.1061/avr8-gnu-toolchain/bin/../lib/gcc/avr/4.8.1/../../../../avr/lib/avr6\libc.a(memcpy_P.o)
                              All_MegaRf_Atmega256rfr2_8Mhz_Gcc/Obj/stdPdsMemAccess.o (memcpy_P)
c:/program files (x86)/atmel/atmel toolchain/avr8 gcc/native/3.4.1061/avr8-gnu-toolchain/bin/../lib/gcc/avr/4.8.1/../../../../avr/lib/avr6\libc.a(memcmp.o)
                              All_MegaRf_Atmega256rfr2_8Mhz_Gcc/Obj/stdPdsDataServer.o (memcmp)
c:/program files (x86)/atmel/atmel toolchain/avr8 gcc/native/3.4.1061/avr8-gnu-toolchain/bin/../lib/gcc/avr/4.8.1/../../../../avr/lib/avr6\libc.a(memcpy.o)
                              All_MegaRf_Atmega256rfr2_8Mhz_Gcc/Obj/configServer.o (memcpy)
c:/program files (x86)/atmel/atmel toolchain/avr8 gcc/native/3.4.1061/avr8-gnu-toolchain/bin/../lib/gcc/avr/4.8.1/../../../../avr/lib/avr6\libc.a(memmove.o)
                              ../../../../BitCloud/lib/libBc_All_Atmega256rfr2_Atmega256rfr2_Gcc.a(nwk.o) (memmove)
c:/program files (x86)/atmel/atmel toolchain/avr8 gcc/native/3.4.1061/avr8-gnu-toolchain/bin/../lib/gcc/avr/4.8.1/../../../../avr/lib/avr6\libc.a(memset.o)
                              All_MegaRf_Atmega256rfr2_8Mhz_Gcc/Obj/stdPdsMemAccess.o (memset)

Allocating common symbols
Common symbol       size              file

stackBuffers        0xc60             All_MegaRf_Atmega256rfr2_8Mhz_Gcc/Obj/csMem.o
csAIB               0x3               All_MegaRf_Atmega256rfr2_8Mhz_Gcc/Obj/csMem.o
usartDescriptor     0x21              All_MegaRf_Atmega256rfr2_8Mhz_Gcc/Obj/app.o
macMem              0x9b              ../../../../BitCloud/lib/libBc_All_Atmega256rfr2_Atmega256rfr2_Gcc.a(macMem.o)
extHandler          0x2               ../../../../BitCloud/lib/libHAL_MegaRf_Atmega256rfr2_8Mhz_Gcc.a(halTaskManager.o)
nwkMem              0x1df             ../../../../BitCloud/lib/libBc_All_Atmega256rfr2_Atmega256rfr2_Gcc.a(nwk.o)
machwdTxFrameHandlerRetryCounter
                    0x1               ../../../../BitCloud/lib/libBc_All_Atmega256rfr2_Atmega256rfr2_Gcc.a(machwdTxFrameHandler.o)
csZIB               0x17              All_MegaRf_Atmega256rfr2_8Mhz_Gcc/Obj/csMem.o
csPIB               0x38              All_MegaRf_Atmega256rfr2_8Mhz_Gcc/Obj/csMem.o
s_pAssertSubscriber
                    0x2               All_MegaRf_Atmega256rfr2_8Mhz_Gcc/Obj/sysAssert.o
halEepromParams     0x6               ../../../../BitCloud/lib/libHAL_MegaRf_Atmega256rfr2_8Mhz_Gcc.a(eeprom.o)
zdoMem              0xbf              ../../../../BitCloud/lib/libBc_All_Atmega256rfr2_Atmega256rfr2_Gcc.a(zdo.o)
csSIB               0x43              All_MegaRf_Atmega256rfr2_8Mhz_Gcc/Obj/csMem.o
__energyLevel       0x1               ../../../../BitCloud/lib/libBc_All_Atmega256rfr2_Atmega256rfr2_Gcc.a(machwdEdHandler.o)
apsMem              0xca              ../../../../BitCloud/lib/libBc_All_Atmega256rfr2_Atmega256rfr2_Gcc.a(aps.o)
sendTimer           0xd               All_MegaRf_Atmega256rfr2_8Mhz_Gcc/Obj/app.o
rxSlaveBuffer       0xa               ../../../../BitCloud/lib/libHAL_MegaRf_Atmega256rfr2_8Mhz_Gcc.a(halSpi.o)
txBuffer            0x21              ../../../../BitCloud/lib/libBc_All_Atmega256rfr2_Atmega256rfr2_Gcc.a(machwdFrameRoutine.o)
__rtimer            0x5               ../../../../BitCloud/lib/libHAL_MegaRf_Atmega256rfr2_8Mhz_Gcc.a(halMacIsr.o)
pendingTransactionsHash
                    0x20              ../../../../BitCloud/lib/libBc_All_Atmega256rfr2_Atmega256rfr2_Gcc.a(machwiTransactionHash.o)
pdsMem              0x31              All_MegaRf_Atmega256rfr2_8Mhz_Gcc/Obj/stdPdsMem.o
gAssertDbgCode      0x2               All_MegaRf_Atmega256rfr2_8Mhz_Gcc/Obj/sysAssert.o
__necessaryPhyTrxState
                    0x1               ../../../../BitCloud/lib/libBc_All_Atmega256rfr2_Atmega256rfr2_Gcc.a(phySetTrxState.o)
machwdTxFrameHandlerRandomSeed
                    0x2               ../../../../BitCloud/lib/libBc_All_Atmega256rfr2_Atmega256rfr2_Gcc.a(machwdTxFrameHandler.o)
__sourceHandler     0x1               ../../../../BitCloud/lib/libBc_All_Atmega256rfr2_Atmega256rfr2_Gcc.a(machwdTrxCtrl.o)
gAssertParam        0x4               All_MegaRf_Atmega256rfr2_8Mhz_Gcc/Obj/sysAssert.o
halEepromDone       0x2               ../../../../BitCloud/lib/libHAL_MegaRf_Atmega256rfr2_8Mhz_Gcc.a(eeprom.o)
csNIB               0x87              All_MegaRf_Atmega256rfr2_8Mhz_Gcc/Obj/csMem.o

Discarded input sections

 .data          0x00000000        0x0 c:/program files (x86)/atmel/atmel toolchain/avr8 gcc/native/3.4.1061/avr8-gnu-toolchain/bin/../lib/gcc/avr/4.8.1/../../../../avr/lib/avr6/crtm256rfr2.o
 .bss           0x00000000        0x0 c:/program files (x86)/atmel/atmel toolchain/avr8 gcc/native/3.4.1061/avr8-gnu-toolchain/bin/../lib/gcc/avr/4.8.1/../../../../avr/lib/avr6/crtm256rfr2.o
 .init9         0x00000000        0x8 c:/program files (x86)/atmel/atmel toolchain/avr8 gcc/native/3.4.1061/avr8-gnu-toolchain/bin/../lib/gcc/avr/4.8.1/../../../../avr/lib/avr6/crtm256rfr2.o
 .text          0x00000000        0x0 All_MegaRf_Atmega256rfr2_8Mhz_Gcc/Obj/app.o
 .data          0x00000000        0x0 All_MegaRf_Atmega256rfr2_8Mhz_Gcc/Obj/app.o
 .text          0x00000000        0x0 All_MegaRf_Atmega256rfr2_8Mhz_Gcc/Obj/usartManager.o
 .data          0x00000000        0x0 All_MegaRf_Atmega256rfr2_8Mhz_Gcc/Obj/usartManager.o
 .text.appIsUsartEmpty
                0x00000000       0x14 All_MegaRf_Atmega256rfr2_8Mhz_Gcc/Obj/usartManager.o
 .text.appCloseUsartManager
                0x00000000        0xa All_MegaRf_Atmega256rfr2_8Mhz_Gcc/Obj/usartManager.o
 .text.uint8_to_hexstr
                0x00000000       0x3a All_MegaRf_Atmega256rfr2_8Mhz_Gcc/Obj/usartManager.o
 .text.uint16_to_hexstr
                0x00000000       0x46 All_MegaRf_Atmega256rfr2_8Mhz_Gcc/Obj/usartManager.o
 .text.uint32_to_hexstr
                0x00000000       0x70 All_MegaRf_Atmega256rfr2_8Mhz_Gcc/Obj/usartManager.o
 .text.uint64_to_hexstr
                0x00000000       0x7e All_MegaRf_Atmega256rfr2_8Mhz_Gcc/Obj/usartManager.o
 .text.uint32_to_str
                0x00000000       0x62 All_MegaRf_Atmega256rfr2_8Mhz_Gcc/Obj/usartManager.o
 .text.int32_to_str
                0x00000000       0x96 All_MegaRf_Atmega256rfr2_8Mhz_Gcc/Obj/usartManager.o
 .text          0x00000000        0x0 All_MegaRf_Atmega256rfr2_8Mhz_Gcc/Obj/stdPdsMemAccess.o
 .data          0x00000000        0x0 All_MegaRf_Atmega256rfr2_8Mhz_Gcc/Obj/stdPdsMemAccess.o
 .bss           0x00000000        0x0 All_MegaRf_Atmega256rfr2_8Mhz_Gcc/Obj/stdPdsMemAccess.o
 .text.pdsGetDirectoryDescrRec
                0x00000000       0x62 All_MegaRf_Atmega256rfr2_8Mhz_Gcc/Obj/stdPdsMemAccess.o
 .text          0x00000000        0x0 All_MegaRf_Atmega256rfr2_8Mhz_Gcc/Obj/stdPdsTimer.o
 .data          0x00000000        0x0 All_MegaRf_Atmega256rfr2_8Mhz_Gcc/Obj/stdPdsTimer.o
 .bss           0x00000000        0x0 All_MegaRf_Atmega256rfr2_8Mhz_Gcc/Obj/stdPdsTimer.o
 .text.PDS_StoreByTimer
                0x00000000       0x60 All_MegaRf_Atmega256rfr2_8Mhz_Gcc/Obj/stdPdsTimer.o
 .text.PDS_Stop
                0x00000000       0x1e All_MegaRf_Atmega256rfr2_8Mhz_Gcc/Obj/stdPdsTimer.o
 .text.PDS_Run  0x00000000       0x1e All_MegaRf_Atmega256rfr2_8Mhz_Gcc/Obj/stdPdsTimer.o
 .text          0x00000000        0x0 All_MegaRf_Atmega256rfr2_8Mhz_Gcc/Obj/stdPdsMem.o
 .data          0x00000000        0x0 All_MegaRf_Atmega256rfr2_8Mhz_Gcc/Obj/stdPdsMem.o
 .bss           0x00000000        0x0 All_MegaRf_Atmega256rfr2_8Mhz_Gcc/Obj/stdPdsMem.o
 .text          0x00000000        0x0 All_MegaRf_Atmega256rfr2_8Mhz_Gcc/Obj/stdPdsWriteData.o
 .data          0x00000000        0x0 All_MegaRf_Atmega256rfr2_8Mhz_Gcc/Obj/stdPdsWriteData.o
 .text.pdsUpdate
                0x00000000       0x92 All_MegaRf_Atmega256rfr2_8Mhz_Gcc/Obj/stdPdsWriteData.o
 .text.pdsCorruptFiles
                0x00000000       0xa6 All_MegaRf_Atmega256rfr2_8Mhz_Gcc/Obj/stdPdsWriteData.o
 .text          0x00000000        0x0 All_MegaRf_Atmega256rfr2_8Mhz_Gcc/Obj/stdPdsCrcService.o
 .data          0x00000000        0x0 All_MegaRf_Atmega256rfr2_8Mhz_Gcc/Obj/stdPdsCrcService.o
 .bss           0x00000000        0x0 All_MegaRf_Atmega256rfr2_8Mhz_Gcc/Obj/stdPdsCrcService.o
 .text.pdsCheckFile
                0x00000000       0xbc All_MegaRf_Atmega256rfr2_8Mhz_Gcc/Obj/stdPdsCrcService.o
 .text.pdsCheckStorage
                0x00000000       0x8e All_MegaRf_Atmega256rfr2_8Mhz_Gcc/Obj/stdPdsCrcService.o
 .text          0x00000000        0x0 All_MegaRf_Atmega256rfr2_8Mhz_Gcc/Obj/stdPdsInit.o
 .data          0x00000000        0x0 All_MegaRf_Atmega256rfr2_8Mhz_Gcc/Obj/stdPdsInit.o
 .bss           0x00000000        0x0 All_MegaRf_Atmega256rfr2_8Mhz_Gcc/Obj/stdPdsInit.o
 .text          0x00000000        0x0 All_MegaRf_Atmega256rfr2_8Mhz_Gcc/Obj/stdPdsEvents.o
 .data          0x00000000        0xc All_MegaRf_Atmega256rfr2_8Mhz_Gcc/Obj/stdPdsEvents.o
 .bss           0x00000000        0x0 All_MegaRf_Atmega256rfr2_8Mhz_Gcc/Obj/stdPdsEvents.o
 .text.pdsObserver
                0x00000000       0x52 All_MegaRf_Atmega256rfr2_8Mhz_Gcc/Obj/stdPdsEvents.o
 .text.PDS_StoreByEvents
                0x00000000       0xe8 All_MegaRf_Atmega256rfr2_8Mhz_Gcc/Obj/stdPdsEvents.o
 .progmem.data  0x00000000       0x42 All_MegaRf_Atmega256rfr2_8Mhz_Gcc/Obj/stdPdsEvents.o
 .debug_info    0x00000000      0xa0f All_MegaRf_Atmega256rfr2_8Mhz_Gcc/Obj/stdPdsEvents.o
 .debug_abbrev  0x00000000      0x24f All_MegaRf_Atmega256rfr2_8Mhz_Gcc/Obj/stdPdsEvents.o
 .debug_loc     0x00000000      0x11f All_MegaRf_Atmega256rfr2_8Mhz_Gcc/Obj/stdPdsEvents.o
 .debug_aranges
                0x00000000       0x28 All_MegaRf_Atmega256rfr2_8Mhz_Gcc/Obj/stdPdsEvents.o
 .debug_ranges  0x00000000       0x18 All_MegaRf_Atmega256rfr2_8Mhz_Gcc/Obj/stdPdsEvents.o
 .debug_line    0x00000000      0x41e All_MegaRf_Atmega256rfr2_8Mhz_Gcc/Obj/stdPdsEvents.o
 .debug_str     0x00000000     0x117c All_MegaRf_Atmega256rfr2_8Mhz_Gcc/Obj/stdPdsEvents.o
 .comment       0x00000000       0x31 All_MegaRf_Atmega256rfr2_8Mhz_Gcc/Obj/stdPdsEvents.o
 .debug_frame   0x00000000       0x5c All_MegaRf_Atmega256rfr2_8Mhz_Gcc/Obj/stdPdsEvents.o
 .text          0x00000000        0x0 All_MegaRf_Atmega256rfr2_8Mhz_Gcc/Obj/stdPdsDataServer.o
 .data          0x00000000        0x0 All_MegaRf_Atmega256rfr2_8Mhz_Gcc/Obj/stdPdsDataServer.o
 .bss           0x00000000        0x0 All_MegaRf_Atmega256rfr2_8Mhz_Gcc/Obj/stdPdsDataServer.o
 .text.PDS_Restore
                0x00000000       0x72 All_MegaRf_Atmega256rfr2_8Mhz_Gcc/Obj/stdPdsDataServer.o
 .text.PDS_BlockingStore
                0x00000000       0x2e All_MegaRf_Atmega256rfr2_8Mhz_Gcc/Obj/stdPdsDataServer.o
 .text.PDS_IsAbleToRestore
                0x00000000       0x6a All_MegaRf_Atmega256rfr2_8Mhz_Gcc/Obj/stdPdsDataServer.o
 .text.PDS_IsAbleToStore
                0x00000000       0x2e All_MegaRf_Atmega256rfr2_8Mhz_Gcc/Obj/stdPdsDataServer.o
 .text.PDS_IsMemoryRestored
                0x00000000       0x52 All_MegaRf_Atmega256rfr2_8Mhz_Gcc/Obj/stdPdsDataServer.o
 .text.PDS_ClearRestoredMemory
                0x00000000       0x3a All_MegaRf_Atmega256rfr2_8Mhz_Gcc/Obj/stdPdsDataServer.o
 .text.PDS_Delete
                0x00000000       0x50 All_MegaRf_Atmega256rfr2_8Mhz_Gcc/Obj/stdPdsDataServer.o
 .text.PDS_DeleteAll
                0x00000000        0x4 All_MegaRf_Atmega256rfr2_8Mhz_Gcc/Obj/stdPdsDataServer.o
 .text.PDS_FlushData
                0x00000000        0x6 All_MegaRf_Atmega256rfr2_8Mhz_Gcc/Obj/stdPdsDataServer.o
 .text.PDS_ResetStorage
                0x00000000        0x6 All_MegaRf_Atmega256rfr2_8Mhz_Gcc/Obj/stdPdsDataServer.o
 .text.PDS_ReadUserData
                0x00000000       0x5a All_MegaRf_Atmega256rfr2_8Mhz_Gcc/Obj/stdPdsDataServer.o
 .text.PDS_WriteUserData
                0x00000000       0x5a All_MegaRf_Atmega256rfr2_8Mhz_Gcc/Obj/stdPdsDataServer.o
 .text          0x00000000        0x0 All_MegaRf_Atmega256rfr2_8Mhz_Gcc/Obj/fakePds.o
 .data          0x00000000        0x0 All_MegaRf_Atmega256rfr2_8Mhz_Gcc/Obj/fakePds.o
 .bss           0x00000000        0x0 All_MegaRf_Atmega256rfr2_8Mhz_Gcc/Obj/fakePds.o
 .debug_line    0x00000000        0x0 All_MegaRf_Atmega256rfr2_8Mhz_Gcc/Obj/fakePds.o
 .debug_str     0x00000000        0x0 All_MegaRf_Atmega256rfr2_8Mhz_Gcc/Obj/fakePds.o
 .comment       0x00000000       0x31 All_MegaRf_Atmega256rfr2_8Mhz_Gcc/Obj/fakePds.o
 .text          0x00000000        0x0 All_MegaRf_Atmega256rfr2_8Mhz_Gcc/Obj/wlPdsTypesConverter.o
 .data          0x00000000        0x0 All_MegaRf_Atmega256rfr2_8Mhz_Gcc/Obj/wlPdsTypesConverter.o
 .bss           0x00000000        0x0 All_MegaRf_Atmega256rfr2_8Mhz_Gcc/Obj/wlPdsTypesConverter.o
 .debug_line    0x00000000        0x0 All_MegaRf_Atmega256rfr2_8Mhz_Gcc/Obj/wlPdsTypesConverter.o
 .debug_str     0x00000000        0x0 All_MegaRf_Atmega256rfr2_8Mhz_Gcc/Obj/wlPdsTypesConverter.o
 .comment       0x00000000       0x31 All_MegaRf_Atmega256rfr2_8Mhz_Gcc/Obj/wlPdsTypesConverter.o
 .text          0x00000000        0x0 All_MegaRf_Atmega256rfr2_8Mhz_Gcc/Obj/wlPdsTaskManager.o
 .data          0x00000000        0x0 All_MegaRf_Atmega256rfr2_8Mhz_Gcc/Obj/wlPdsTaskManager.o
 .bss           0x00000000        0x0 All_MegaRf_Atmega256rfr2_8Mhz_Gcc/Obj/wlPdsTaskManager.o
 .debug_line    0x00000000        0x0 All_MegaRf_Atmega256rfr2_8Mhz_Gcc/Obj/wlPdsTaskManager.o
 .debug_str     0x00000000        0x0 All_MegaRf_Atmega256rfr2_8Mhz_Gcc/Obj/wlPdsTaskManager.o
 .comment       0x00000000       0x31 All_MegaRf_Atmega256rfr2_8Mhz_Gcc/Obj/wlPdsTaskManager.o
 .text          0x00000000        0x0 All_MegaRf_Atmega256rfr2_8Mhz_Gcc/Obj/wlPdsSecurity.o
 .data          0x00000000        0x0 All_MegaRf_Atmega256rfr2_8Mhz_Gcc/Obj/wlPdsSecurity.o
 .bss           0x00000000        0x0 All_MegaRf_Atmega256rfr2_8Mhz_Gcc/Obj/wlPdsSecurity.o
 .debug_line    0x00000000        0x0 All_MegaRf_Atmega256rfr2_8Mhz_Gcc/Obj/wlPdsSecurity.o
 .debug_str     0x00000000        0x0 All_MegaRf_Atmega256rfr2_8Mhz_Gcc/Obj/wlPdsSecurity.o
 .comment       0x00000000       0x31 All_MegaRf_Atmega256rfr2_8Mhz_Gcc/Obj/wlPdsSecurity.o
 .text          0x00000000        0x0 All_MegaRf_Atmega256rfr2_8Mhz_Gcc/Obj/wlPdsInit.o
 .data          0x00000000        0x0 All_MegaRf_Atmega256rfr2_8Mhz_Gcc/Obj/wlPdsInit.o
 .bss           0x00000000        0x0 All_MegaRf_Atmega256rfr2_8Mhz_Gcc/Obj/wlPdsInit.o
 .debug_line    0x00000000        0x0 All_MegaRf_Atmega256rfr2_8Mhz_Gcc/Obj/wlPdsInit.o
 .debug_str     0x00000000        0x0 All_MegaRf_Atmega256rfr2_8Mhz_Gcc/Obj/wlPdsInit.o
 .comment       0x00000000       0x31 All_MegaRf_Atmega256rfr2_8Mhz_Gcc/Obj/wlPdsInit.o
 .text          0x00000000        0x0 All_MegaRf_Atmega256rfr2_8Mhz_Gcc/Obj/wlPdsDataServer.o
 .data          0x00000000        0x0 All_MegaRf_Atmega256rfr2_8Mhz_Gcc/Obj/wlPdsDataServer.o
 .bss           0x00000000        0x0 All_MegaRf_Atmega256rfr2_8Mhz_Gcc/Obj/wlPdsDataServer.o
 .debug_line    0x00000000        0x0 All_MegaRf_Atmega256rfr2_8Mhz_Gcc/Obj/wlPdsDataServer.o
 .debug_str     0x00000000        0x0 All_MegaRf_Atmega256rfr2_8Mhz_Gcc/Obj/wlPdsDataServer.o
 .comment       0x00000000       0x31 All_MegaRf_Atmega256rfr2_8Mhz_Gcc/Obj/wlPdsDataServer.o
 .text          0x00000000        0x0 All_MegaRf_Atmega256rfr2_8Mhz_Gcc/Obj/S_Nv.o
 .data          0x00000000        0x0 All_MegaRf_Atmega256rfr2_8Mhz_Gcc/Obj/S_Nv.o
 .bss           0x00000000        0x0 All_MegaRf_Atmega256rfr2_8Mhz_Gcc/Obj/S_Nv.o
 .debug_line    0x00000000        0x0 All_MegaRf_Atmega256rfr2_8Mhz_Gcc/Obj/S_Nv.o
 .debug_str     0x00000000        0x0 All_MegaRf_Atmega256rfr2_8Mhz_Gcc/Obj/S_Nv.o
 .comment       0x00000000       0x31 All_MegaRf_Atmega256rfr2_8Mhz_Gcc/Obj/S_Nv.o
 .text          0x00000000        0x0 All_MegaRf_Atmega256rfr2_8Mhz_Gcc/Obj/S_XNv.o
 .data          0x00000000        0x0 All_MegaRf_Atmega256rfr2_8Mhz_Gcc/Obj/S_XNv.o
 .bss           0x00000000        0x0 All_MegaRf_Atmega256rfr2_8Mhz_Gcc/Obj/S_XNv.o
 .debug_line    0x00000000        0x0 All_MegaRf_Atmega256rfr2_8Mhz_Gcc/Obj/S_XNv.o
 .debug_str     0x00000000        0x0 All_MegaRf_Atmega256rfr2_8Mhz_Gcc/Obj/S_XNv.o
 .comment       0x00000000       0x31 All_MegaRf_Atmega256rfr2_8Mhz_Gcc/Obj/S_XNv.o
 .text          0x00000000        0x0 All_MegaRf_Atmega256rfr2_8Mhz_Gcc/Obj/S_Nv-External.o
 .data          0x00000000        0x0 All_MegaRf_Atmega256rfr2_8Mhz_Gcc/Obj/S_Nv-External.o
 .bss           0x00000000        0x0 All_MegaRf_Atmega256rfr2_8Mhz_Gcc/Obj/S_Nv-External.o
 .debug_line    0x00000000        0x0 All_MegaRf_Atmega256rfr2_8Mhz_Gcc/Obj/S_Nv-External.o
 .debug_str     0x00000000        0x0 All_MegaRf_Atmega256rfr2_8Mhz_Gcc/Obj/S_Nv-External.o
 .comment       0x00000000       0x31 All_MegaRf_Atmega256rfr2_8Mhz_Gcc/Obj/S_Nv-External.o
 .text          0x00000000        0x0 All_MegaRf_Atmega256rfr2_8Mhz_Gcc/Obj/D_Nv.o
 .data          0x00000000        0x0 All_MegaRf_Atmega256rfr2_8Mhz_Gcc/Obj/D_Nv.o
 .bss           0x00000000        0x0 All_MegaRf_Atmega256rfr2_8Mhz_Gcc/Obj/D_Nv.o
 .debug_line    0x00000000        0x0 All_MegaRf_Atmega256rfr2_8Mhz_Gcc/Obj/D_Nv.o
 .debug_str     0x00000000        0x0 All_MegaRf_Atmega256rfr2_8Mhz_Gcc/Obj/D_Nv.o
 .comment       0x00000000       0x31 All_MegaRf_Atmega256rfr2_8Mhz_Gcc/Obj/D_Nv.o
 .text          0x00000000        0x0 All_MegaRf_Atmega256rfr2_8Mhz_Gcc/Obj/S_Nv_Stub.o
 .data          0x00000000        0x0 All_MegaRf_Atmega256rfr2_8Mhz_Gcc/Obj/S_Nv_Stub.o
 .bss           0x00000000        0x0 All_MegaRf_Atmega256rfr2_8Mhz_Gcc/Obj/S_Nv_Stub.o
 .text.N_ErrH_Fatal
                0x00000000        0x2 All_MegaRf_Atmega256rfr2_8Mhz_Gcc/Obj/S_Nv_Stub.o
 .text.N_Log_Prepare
                0x00000000        0x2 All_MegaRf_Atmega256rfr2_8Mhz_Gcc/Obj/S_Nv_Stub.o
 .text.N_Log_Trace
                0x00000000       0x12 All_MegaRf_Atmega256rfr2_8Mhz_Gcc/Obj/S_Nv_Stub.o
 .debug_info    0x00000000      0x1b2 All_MegaRf_Atmega256rfr2_8Mhz_Gcc/Obj/S_Nv_Stub.o
 .debug_abbrev  0x00000000       0xa7 All_MegaRf_Atmega256rfr2_8Mhz_Gcc/Obj/S_Nv_Stub.o
 .debug_loc     0x00000000       0x21 All_MegaRf_Atmega256rfr2_8Mhz_Gcc/Obj/S_Nv_Stub.o
 .debug_aranges
                0x00000000       0x30 All_MegaRf_Atmega256rfr2_8Mhz_Gcc/Obj/S_Nv_Stub.o
 .debug_ranges  0x00000000       0x20 All_MegaRf_Atmega256rfr2_8Mhz_Gcc/Obj/S_Nv_Stub.o
 .debug_line    0x00000000      0x165 All_MegaRf_Atmega256rfr2_8Mhz_Gcc/Obj/S_Nv_Stub.o
 .debug_str     0x00000000      0x2ea All_MegaRf_Atmega256rfr2_8Mhz_Gcc/Obj/S_Nv_Stub.o
 .comment       0x00000000       0x31 All_MegaRf_Atmega256rfr2_8Mhz_Gcc/Obj/S_Nv_Stub.o
 .debug_frame   0x00000000       0x4c All_MegaRf_Atmega256rfr2_8Mhz_Gcc/Obj/S_Nv_Stub.o
 .text          0x00000000        0x0 All_MegaRf_Atmega256rfr2_8Mhz_Gcc/Obj/sysIdleHandler.o
 .data          0x00000000        0x0 All_MegaRf_Atmega256rfr2_8Mhz_Gcc/Obj/sysIdleHandler.o
 .text.SYS_EnableSleepWhenIdle
                0x00000000        0x8 All_MegaRf_Atmega256rfr2_8Mhz_Gcc/Obj/sysIdleHandler.o
 .text.SYS_DisableSleepWhenIdle
                0x00000000        0x6 All_MegaRf_Atmega256rfr2_8Mhz_Gcc/Obj/sysIdleHandler.o
 .text          0x00000000        0x0 All_MegaRf_Atmega256rfr2_8Mhz_Gcc/Obj/sysSleep.o
 .data          0x00000000        0x0 All_MegaRf_Atmega256rfr2_8Mhz_Gcc/Obj/sysSleep.o
 .bss           0x00000000        0x0 All_MegaRf_Atmega256rfr2_8Mhz_Gcc/Obj/sysSleep.o
 .text          0x00000000        0x0 All_MegaRf_Atmega256rfr2_8Mhz_Gcc/Obj/sysStat.o
 .data          0x00000000        0x0 All_MegaRf_Atmega256rfr2_8Mhz_Gcc/Obj/sysStat.o
 .bss           0x00000000        0x0 All_MegaRf_Atmega256rfr2_8Mhz_Gcc/Obj/sysStat.o
 .debug_line    0x00000000        0x0 All_MegaRf_Atmega256rfr2_8Mhz_Gcc/Obj/sysStat.o
 .debug_str     0x00000000        0x0 All_MegaRf_Atmega256rfr2_8Mhz_Gcc/Obj/sysStat.o
 .comment       0x00000000       0x31 All_MegaRf_Atmega256rfr2_8Mhz_Gcc/Obj/sysStat.o
 .text          0x00000000        0x0 All_MegaRf_Atmega256rfr2_8Mhz_Gcc/Obj/sysEventsHandler.o
 .data          0x00000000        0x0 All_MegaRf_Atmega256rfr2_8Mhz_Gcc/Obj/sysEventsHandler.o
 .text          0x00000000        0x0 All_MegaRf_Atmega256rfr2_8Mhz_Gcc/Obj/sysQueue.o
 .data          0x00000000        0x0 All_MegaRf_Atmega256rfr2_8Mhz_Gcc/Obj/sysQueue.o
 .bss           0x00000000        0x0 All_MegaRf_Atmega256rfr2_8Mhz_Gcc/Obj/sysQueue.o
 .text          0x00000000        0x0 All_MegaRf_Atmega256rfr2_8Mhz_Gcc/Obj/sysUtils.o
 .bss           0x00000000        0x0 All_MegaRf_Atmega256rfr2_8Mhz_Gcc/Obj/sysUtils.o
 .text.SYS_Swap
                0x00000000       0x1c All_MegaRf_Atmega256rfr2_8Mhz_Gcc/Obj/sysUtils.o
 .text.SYS_GetRandomSequence
                0x00000000       0x76 All_MegaRf_Atmega256rfr2_8Mhz_Gcc/Obj/sysUtils.o
 .text.SYS_GetBitCloudRevision
                0x00000000      0x232 All_MegaRf_Atmega256rfr2_8Mhz_Gcc/Obj/sysUtils.o
 .text          0x00000000        0x0 All_MegaRf_Atmega256rfr2_8Mhz_Gcc/Obj/sysAssert.o
 .data          0x00000000        0x0 All_MegaRf_Atmega256rfr2_8Mhz_Gcc/Obj/sysAssert.o
 .bss           0x00000000        0x0 All_MegaRf_Atmega256rfr2_8Mhz_Gcc/Obj/sysAssert.o
 .text.SYS_AssertSubscribe
                0x00000000        0xe All_MegaRf_Atmega256rfr2_8Mhz_Gcc/Obj/sysAssert.o
 .text.SYS_DefAssertCallbackWarn
                0x00000000       0x30 All_MegaRf_Atmega256rfr2_8Mhz_Gcc/Obj/sysAssert.o
 .text          0x00000000        0x0 All_MegaRf_Atmega256rfr2_8Mhz_Gcc/Obj/sysDuplicateTable.o
 .data          0x00000000        0x0 All_MegaRf_Atmega256rfr2_8Mhz_Gcc/Obj/sysDuplicateTable.o
 .bss           0x00000000        0x0 All_MegaRf_Atmega256rfr2_8Mhz_Gcc/Obj/sysDuplicateTable.o
 .text.SYS_DuplicateTableEntryExists
                0x00000000       0x44 All_MegaRf_Atmega256rfr2_8Mhz_Gcc/Obj/sysDuplicateTable.o
 .text.SYS_DuplicateTableClear
                0x00000000       0x66 All_MegaRf_Atmega256rfr2_8Mhz_Gcc/Obj/sysDuplicateTable.o
 .text          0x00000000        0x0 All_MegaRf_Atmega256rfr2_8Mhz_Gcc/Obj/sysInit.o
 .data          0x00000000        0x0 All_MegaRf_Atmega256rfr2_8Mhz_Gcc/Obj/sysInit.o
 .bss           0x00000000        0x0 All_MegaRf_Atmega256rfr2_8Mhz_Gcc/Obj/sysInit.o
 .text.SYS_InitZsiMem
                0x00000000        0x2 All_MegaRf_Atmega256rfr2_8Mhz_Gcc/Obj/sysInit.o
 .text          0x00000000        0x0 All_MegaRf_Atmega256rfr2_8Mhz_Gcc/Obj/sysTaskManager.o
 .text.SYS_ForcePdsHandler
                0x00000000       0x18 All_MegaRf_Atmega256rfr2_8Mhz_Gcc/Obj/sysTaskManager.o
 .text          0x00000000        0x0 All_MegaRf_Atmega256rfr2_8Mhz_Gcc/Obj/dbg.o
 .data          0x00000000        0x0 All_MegaRf_Atmega256rfr2_8Mhz_Gcc/Obj/dbg.o
 .bss           0x00000000        0x0 All_MegaRf_Atmega256rfr2_8Mhz_Gcc/Obj/dbg.o
 .debug_info    0x00000000       0x5d All_MegaRf_Atmega256rfr2_8Mhz_Gcc/Obj/dbg.o
 .debug_abbrev  0x00000000       0x26 All_MegaRf_Atmega256rfr2_8Mhz_Gcc/Obj/dbg.o
 .debug_aranges
                0x00000000       0x18 All_MegaRf_Atmega256rfr2_8Mhz_Gcc/Obj/dbg.o
 .debug_line    0x00000000       0x1a All_MegaRf_Atmega256rfr2_8Mhz_Gcc/Obj/dbg.o
 .debug_str     0x00000000      0x16b All_MegaRf_Atmega256rfr2_8Mhz_Gcc/Obj/dbg.o
 .comment       0x00000000       0x31 All_MegaRf_Atmega256rfr2_8Mhz_Gcc/Obj/dbg.o
 .text          0x00000000        0x0 All_MegaRf_Atmega256rfr2_8Mhz_Gcc/Obj/sysMutex.o
 .data          0x00000000        0x0 All_MegaRf_Atmega256rfr2_8Mhz_Gcc/Obj/sysMutex.o
 .bss           0x00000000        0x0 All_MegaRf_Atmega256rfr2_8Mhz_Gcc/Obj/sysMutex.o
 .text.SYS_MutexLock
                0x00000000       0x52 All_MegaRf_Atmega256rfr2_8Mhz_Gcc/Obj/sysMutex.o
 .text.SYS_MutexUnlock
                0x00000000       0x9c All_MegaRf_Atmega256rfr2_8Mhz_Gcc/Obj/sysMutex.o
 .text.SYS_IsMutexLocked
                0x00000000       0x44 All_MegaRf_Atmega256rfr2_8Mhz_Gcc/Obj/sysMutex.o
 .debug_info    0x00000000      0x410 All_MegaRf_Atmega256rfr2_8Mhz_Gcc/Obj/sysMutex.o
 .debug_abbrev  0x00000000      0x1a1 All_MegaRf_Atmega256rfr2_8Mhz_Gcc/Obj/sysMutex.o
 .debug_loc     0x00000000      0x29b All_MegaRf_Atmega256rfr2_8Mhz_Gcc/Obj/sysMutex.o
 .debug_aranges
                0x00000000       0x30 All_MegaRf_Atmega256rfr2_8Mhz_Gcc/Obj/sysMutex.o
 .debug_ranges  0x00000000       0x20 All_MegaRf_Atmega256rfr2_8Mhz_Gcc/Obj/sysMutex.o
 .debug_line    0x00000000      0x245 All_MegaRf_Atmega256rfr2_8Mhz_Gcc/Obj/sysMutex.o
 .debug_str     0x00000000      0x435 All_MegaRf_Atmega256rfr2_8Mhz_Gcc/Obj/sysMutex.o
 .comment       0x00000000       0x31 All_MegaRf_Atmega256rfr2_8Mhz_Gcc/Obj/sysMutex.o
 .debug_frame   0x00000000       0x6c All_MegaRf_Atmega256rfr2_8Mhz_Gcc/Obj/sysMutex.o
 .text          0x00000000        0x0 All_MegaRf_Atmega256rfr2_8Mhz_Gcc/Obj/sysTimer.o
 .data          0x00000000        0x0 All_MegaRf_Atmega256rfr2_8Mhz_Gcc/Obj/sysTimer.o
 .bss           0x00000000        0x0 All_MegaRf_Atmega256rfr2_8Mhz_Gcc/Obj/sysTimer.o
 .text          0x00000000        0x0 All_MegaRf_Atmega256rfr2_8Mhz_Gcc/Obj/bspTaskManager.o
 .data          0x00000000        0x0 All_MegaRf_Atmega256rfr2_8Mhz_Gcc/Obj/bspTaskManager.o
 .bss           0x00000000        0x0 All_MegaRf_Atmega256rfr2_8Mhz_Gcc/Obj/bspTaskManager.o
 .text          0x00000000        0x0 All_MegaRf_Atmega256rfr2_8Mhz_Gcc/Obj/leds.o
 .data          0x00000000        0x0 All_MegaRf_Atmega256rfr2_8Mhz_Gcc/Obj/leds.o
 .bss           0x00000000        0x0 All_MegaRf_Atmega256rfr2_8Mhz_Gcc/Obj/leds.o
 .text.BSP_CloseLeds
                0x00000000       0x10 All_MegaRf_Atmega256rfr2_8Mhz_Gcc/Obj/leds.o
 .text.BSP_ToggleLed
                0x00000000       0x22 All_MegaRf_Atmega256rfr2_8Mhz_Gcc/Obj/leds.o
 .text          0x00000000        0x0 All_MegaRf_Atmega256rfr2_8Mhz_Gcc/Obj/fakeBSP.o
 .data          0x00000000        0x0 All_MegaRf_Atmega256rfr2_8Mhz_Gcc/Obj/fakeBSP.o
 .bss           0x00000000        0x6 All_MegaRf_Atmega256rfr2_8Mhz_Gcc/Obj/fakeBSP.o
 .text.BSP_SetLedColorHS
                0x00000000        0x2 All_MegaRf_Atmega256rfr2_8Mhz_Gcc/Obj/fakeBSP.o
 .text.BSP_SetLedColorXY
                0x00000000        0x2 All_MegaRf_Atmega256rfr2_8Mhz_Gcc/Obj/fakeBSP.o
 .text.BSP_LcdCls
                0x00000000        0x2 All_MegaRf_Atmega256rfr2_8Mhz_Gcc/Obj/fakeBSP.o
 .text.BSP_LcdPrint
                0x00000000       0x12 All_MegaRf_Atmega256rfr2_8Mhz_Gcc/Obj/fakeBSP.o
 .text.BSP_LcdFill
                0x00000000        0x2 All_MegaRf_Atmega256rfr2_8Mhz_Gcc/Obj/fakeBSP.o
 .text.BSP_LcdInit
                0x00000000        0x2 All_MegaRf_Atmega256rfr2_8Mhz_Gcc/Obj/fakeBSP.o
 .text.BSP_OpenTemperatureSensor
                0x00000000        0x4 All_MegaRf_Atmega256rfr2_8Mhz_Gcc/Obj/fakeBSP.o
 .text.BSP_CloseTemperatureSensor
                0x00000000        0x4 All_MegaRf_Atmega256rfr2_8Mhz_Gcc/Obj/fakeBSP.o
 .text.BSP_ReadTemperatureData
                0x00000000       0x2e All_MegaRf_Atmega256rfr2_8Mhz_Gcc/Obj/fakeBSP.o
 .text.bspTemperatureSensorHandler
                0x00000000       0x2e All_MegaRf_Atmega256rfr2_8Mhz_Gcc/Obj/fakeBSP.o
 .text.BSP_OpenLightSensor
                0x00000000        0x4 All_MegaRf_Atmega256rfr2_8Mhz_Gcc/Obj/fakeBSP.o
 .text.BSP_CloseLightSensor
                0x00000000        0x4 All_MegaRf_Atmega256rfr2_8Mhz_Gcc/Obj/fakeBSP.o
 .text.BSP_ReadLightData
                0x00000000       0x2e All_MegaRf_Atmega256rfr2_8Mhz_Gcc/Obj/fakeBSP.o
 .text.bspLightSensorHandler
                0x00000000       0x2e All_MegaRf_Atmega256rfr2_8Mhz_Gcc/Obj/fakeBSP.o
 .text.BSP_OpenBatterySensor
                0x00000000        0x4 All_MegaRf_Atmega256rfr2_8Mhz_Gcc/Obj/fakeBSP.o
 .text.BSP_CloseBatterySensor
                0x00000000        0x4 All_MegaRf_Atmega256rfr2_8Mhz_Gcc/Obj/fakeBSP.o
 .text.BSP_ReadBatteryData
                0x00000000       0x2e All_MegaRf_Atmega256rfr2_8Mhz_Gcc/Obj/fakeBSP.o
 .text.bspEmptyBatteryHandler
                0x00000000       0x2c All_MegaRf_Atmega256rfr2_8Mhz_Gcc/Obj/fakeBSP.o
 .text.BSP_ReadSliders
                0x00000000        0x4 All_MegaRf_Atmega256rfr2_8Mhz_Gcc/Obj/fakeBSP.o
 .debug_info    0x00000000      0x6f4 All_MegaRf_Atmega256rfr2_8Mhz_Gcc/Obj/fakeBSP.o
 .debug_abbrev  0x00000000      0x25d All_MegaRf_Atmega256rfr2_8Mhz_Gcc/Obj/fakeBSP.o
 .debug_loc     0x00000000       0xc0 All_MegaRf_Atmega256rfr2_8Mhz_Gcc/Obj/fakeBSP.o
 .debug_aranges
                0x00000000       0xb0 All_MegaRf_Atmega256rfr2_8Mhz_Gcc/Obj/fakeBSP.o
 .debug_ranges  0x00000000       0xa0 All_MegaRf_Atmega256rfr2_8Mhz_Gcc/Obj/fakeBSP.o
 .debug_line    0x00000000      0x442 All_MegaRf_Atmega256rfr2_8Mhz_Gcc/Obj/fakeBSP.o
 .debug_str     0x00000000      0x588 All_MegaRf_Atmega256rfr2_8Mhz_Gcc/Obj/fakeBSP.o
 .comment       0x00000000       0x31 All_MegaRf_Atmega256rfr2_8Mhz_Gcc/Obj/fakeBSP.o
 .debug_frame   0x00000000      0x14c All_MegaRf_Atmega256rfr2_8Mhz_Gcc/Obj/fakeBSP.o
 .text          0x00000000        0x0 All_MegaRf_Atmega256rfr2_8Mhz_Gcc/Obj/usbFifoVirtualUsart.o
 .data          0x00000000        0x0 All_MegaRf_Atmega256rfr2_8Mhz_Gcc/Obj/usbFifoVirtualUsart.o
 .bss           0x00000000        0x2 All_MegaRf_Atmega256rfr2_8Mhz_Gcc/Obj/usbFifoVirtualUsart.o
 .text.USBFIFO_OpenUsart
                0x00000000       0x5e All_MegaRf_Atmega256rfr2_8Mhz_Gcc/Obj/usbFifoVirtualUsart.o
 .text.USBFIFO_CloseUsart
                0x00000000       0x32 All_MegaRf_Atmega256rfr2_8Mhz_Gcc/Obj/usbFifoVirtualUsart.o
 .text.USBFIFO_WriteUsart
                0x00000000       0xb2 All_MegaRf_Atmega256rfr2_8Mhz_Gcc/Obj/usbFifoVirtualUsart.o
 .text.USBFIFO_ReadUsart
                0x00000000       0x96 All_MegaRf_Atmega256rfr2_8Mhz_Gcc/Obj/usbFifoVirtualUsart.o
 .text.USBFIFO_IsTxEmpty
                0x00000000       0x36 All_MegaRf_Atmega256rfr2_8Mhz_Gcc/Obj/usbFifoVirtualUsart.o
 .debug_info    0x00000000      0x85b All_MegaRf_Atmega256rfr2_8Mhz_Gcc/Obj/usbFifoVirtualUsart.o
 .debug_abbrev  0x00000000      0x227 All_MegaRf_Atmega256rfr2_8Mhz_Gcc/Obj/usbFifoVirtualUsart.o
 .debug_loc     0x00000000      0x5f1 All_MegaRf_Atmega256rfr2_8Mhz_Gcc/Obj/usbFifoVirtualUsart.o
 .debug_aranges
                0x00000000       0x40 All_MegaRf_Atmega256rfr2_8Mhz_Gcc/Obj/usbFifoVirtualUsart.o
 .debug_ranges  0x00000000       0x30 All_MegaRf_Atmega256rfr2_8Mhz_Gcc/Obj/usbFifoVirtualUsart.o
 .debug_line    0x00000000      0x4e0 All_MegaRf_Atmega256rfr2_8Mhz_Gcc/Obj/usbFifoVirtualUsart.o
 .debug_str     0x00000000      0x711 All_MegaRf_Atmega256rfr2_8Mhz_Gcc/Obj/usbFifoVirtualUsart.o
 .comment       0x00000000       0x31 All_MegaRf_Atmega256rfr2_8Mhz_Gcc/Obj/usbFifoVirtualUsart.o
 .debug_frame   0x00000000       0x9c All_MegaRf_Atmega256rfr2_8Mhz_Gcc/Obj/usbFifoVirtualUsart.o
 .text          0x00000000        0x0 All_MegaRf_Atmega256rfr2_8Mhz_Gcc/Obj/usbFifoFT245RL.o
 .data          0x00000000        0x0 All_MegaRf_Atmega256rfr2_8Mhz_Gcc/Obj/usbFifoFT245RL.o
 .bss           0x00000000        0x1 All_MegaRf_Atmega256rfr2_8Mhz_Gcc/Obj/usbFifoFT245RL.o
 .text.usbfifoTxComplete
                0x00000000       0x26 All_MegaRf_Atmega256rfr2_8Mhz_Gcc/Obj/usbFifoFT245RL.o
 .text.usbfifoRxComplete
                0x00000000       0x30 All_MegaRf_Atmega256rfr2_8Mhz_Gcc/Obj/usbFifoFT245RL.o
 .text.usbfifoPostTask
                0x00000000       0x48 All_MegaRf_Atmega256rfr2_8Mhz_Gcc/Obj/usbFifoFT245RL.o
 .text.usbfifoRxBufferFiller
                0x00000000       0x64 All_MegaRf_Atmega256rfr2_8Mhz_Gcc/Obj/usbFifoFT245RL.o
 .text.usbfifoTxBufferCleaner
                0x00000000       0x78 All_MegaRf_Atmega256rfr2_8Mhz_Gcc/Obj/usbFifoFT245RL.o
 .text.usbfifoInit
                0x00000000       0x3a All_MegaRf_Atmega256rfr2_8Mhz_Gcc/Obj/usbFifoFT245RL.o
 .text.usbfifoUnInit
                0x00000000       0x2a All_MegaRf_Atmega256rfr2_8Mhz_Gcc/Obj/usbFifoFT245RL.o
 .text.usbfifoHandler
                0x00000000       0x56 All_MegaRf_Atmega256rfr2_8Mhz_Gcc/Obj/usbFifoFT245RL.o
 .progmem.data  0x00000000        0x4 All_MegaRf_Atmega256rfr2_8Mhz_Gcc/Obj/usbFifoFT245RL.o
 .debug_info    0x00000000      0xc5e All_MegaRf_Atmega256rfr2_8Mhz_Gcc/Obj/usbFifoFT245RL.o
 .debug_abbrev  0x00000000      0x351 All_MegaRf_Atmega256rfr2_8Mhz_Gcc/Obj/usbFifoFT245RL.o
 .debug_loc     0x00000000      0x23b All_MegaRf_Atmega256rfr2_8Mhz_Gcc/Obj/usbFifoFT245RL.o
 .debug_aranges
                0x00000000       0x58 All_MegaRf_Atmega256rfr2_8Mhz_Gcc/Obj/usbFifoFT245RL.o
 .debug_ranges  0x00000000       0x48 All_MegaRf_Atmega256rfr2_8Mhz_Gcc/Obj/usbFifoFT245RL.o
 .debug_line    0x00000000      0x605 All_MegaRf_Atmega256rfr2_8Mhz_Gcc/Obj/usbFifoFT245RL.o
 .debug_str     0x00000000      0xa9a All_MegaRf_Atmega256rfr2_8Mhz_Gcc/Obj/usbFifoFT245RL.o
 .comment       0x00000000       0x31 All_MegaRf_Atmega256rfr2_8Mhz_Gcc/Obj/usbFifoFT245RL.o
 .debug_frame   0x00000000       0xa4 All_MegaRf_Atmega256rfr2_8Mhz_Gcc/Obj/usbFifoFT245RL.o
 .text          0x00000000        0x0 All_MegaRf_Atmega256rfr2_8Mhz_Gcc/Obj/csPersistentMem.o
 .data          0x00000000        0x0 All_MegaRf_Atmega256rfr2_8Mhz_Gcc/Obj/csPersistentMem.o
 .bss           0x00000000        0x0 All_MegaRf_Atmega256rfr2_8Mhz_Gcc/Obj/csPersistentMem.o
 .text          0x00000000        0x0 All_MegaRf_Atmega256rfr2_8Mhz_Gcc/Obj/csMem.o
 .data          0x00000000        0x0 All_MegaRf_Atmega256rfr2_8Mhz_Gcc/Obj/csMem.o
 .bss           0x00000000        0x0 All_MegaRf_Atmega256rfr2_8Mhz_Gcc/Obj/csMem.o
 .text          0x00000000        0x0 All_MegaRf_Atmega256rfr2_8Mhz_Gcc/Obj/configServer.o
 .data          0x00000000        0x0 All_MegaRf_Atmega256rfr2_8Mhz_Gcc/Obj/configServer.o
 .bss           0x00000000        0x0 All_MegaRf_Atmega256rfr2_8Mhz_Gcc/Obj/configServer.o
 .text.CS_GetItemSize
                0x00000000        0x6 All_MegaRf_Atmega256rfr2_8Mhz_Gcc/Obj/configServer.o
 .text.CS_PdsDefaultValue
                0x00000000       0xe0 All_MegaRf_Atmega256rfr2_8Mhz_Gcc/Obj/configServer.o
 .text          0x00000000        0x0 ../../../../BitCloud/lib/libBc_All_Atmega256rfr2_Atmega256rfr2_Gcc.a(aps.o)
 .text.apsInterPanMacDataConf
                0x00000000       0x58 ../../../../BitCloud/lib/libBc_All_Atmega256rfr2_Atmega256rfr2_Gcc.a(aps.o)
 .text.APS_DeactivateBindRecords
                0x00000000       0x5c ../../../../BitCloud/lib/libBc_All_Atmega256rfr2_Atmega256rfr2_Gcc.a(aps.o)
 .text.APS_ActivateBindRecords
                0x00000000       0x5c ../../../../BitCloud/lib/libBc_All_Atmega256rfr2_Atmega256rfr2_Gcc.a(aps.o)
 .text.APS_ApsDataReqDeleteQueueElem
                0x00000000        0xc ../../../../BitCloud/lib/libBc_All_Atmega256rfr2_Atmega256rfr2_Gcc.a(aps.o)
 .text.APS_RegisterEndpointReq
                0x00000000       0x48 ../../../../BitCloud/lib/libBc_All_Atmega256rfr2_Atmega256rfr2_Gcc.a(aps.o)
 .text.APS_UnregisterEndpointReq
                0x00000000       0x2c ../../../../BitCloud/lib/libBc_All_Atmega256rfr2_Atmega256rfr2_Gcc.a(aps.o)
 .text.apsSetNoIndicationFlag
                0x00000000       0x3e ../../../../BitCloud/lib/libBc_All_Atmega256rfr2_Atmega256rfr2_Gcc.a(aps.o)
 .text.APS_StopEndpointIndication
                0x00000000        0x8 ../../../../BitCloud/lib/libBc_All_Atmega256rfr2_Atmega256rfr2_Gcc.a(aps.o)
 .text.APS_ResumeEndpointIndication
                0x00000000        0x8 ../../../../BitCloud/lib/libBc_All_Atmega256rfr2_Atmega256rfr2_Gcc.a(aps.o)
 .text.APS_AddGroupReq
                0x00000000       0x50 ../../../../BitCloud/lib/libBc_All_Atmega256rfr2_Atmega256rfr2_Gcc.a(aps.o)
 .text.APS_RemoveGroupReq
                0x00000000       0x50 ../../../../BitCloud/lib/libBc_All_Atmega256rfr2_Atmega256rfr2_Gcc.a(aps.o)
 .text.APS_RemoveAllGroupsReq
                0x00000000       0x4c ../../../../BitCloud/lib/libBc_All_Atmega256rfr2_Atmega256rfr2_Gcc.a(aps.o)
 .text.INTRP_DataReq
                0x00000000      0x14a ../../../../BitCloud/lib/libBc_All_Atmega256rfr2_Atmega256rfr2_Gcc.a(aps.o)
 .text.INTRP_DataIndRegisterCallback
                0x00000000       0x2c ../../../../BitCloud/lib/libBc_All_Atmega256rfr2_Atmega256rfr2_Gcc.a(aps.o)
 .text.APS_IsStarted
                0x00000000       0x14 ../../../../BitCloud/lib/libBc_All_Atmega256rfr2_Atmega256rfr2_Gcc.a(aps.o)
 .text          0x00000000        0x0 ../../../../BitCloud/lib/libBc_All_Atmega256rfr2_Atmega256rfr2_Gcc.a(macenvPib.o)
 .data          0x00000000        0x0 ../../../../BitCloud/lib/libBc_All_Atmega256rfr2_Atmega256rfr2_Gcc.a(macenvPib.o)
 .bss           0x00000000        0x0 ../../../../BitCloud/lib/libBc_All_Atmega256rfr2_Atmega256rfr2_Gcc.a(macenvPib.o)
 .text.MAC_SetExtAddr
                0x00000000       0x28 ../../../../BitCloud/lib/libBc_All_Atmega256rfr2_Atmega256rfr2_Gcc.a(macenvPib.o)
 .text          0x00000000        0x0 ../../../../BitCloud/lib/libBc_All_Atmega256rfr2_Atmega256rfr2_Gcc.a(machwdManager.o)
 .text.RF_BatteryMonReq
                0x00000000        0xc ../../../../BitCloud/lib/libBc_All_Atmega256rfr2_Atmega256rfr2_Gcc.a(machwdManager.o)
 .text.RF_RandomSeqReq
                0x00000000        0xc ../../../../BitCloud/lib/libBc_All_Atmega256rfr2_Atmega256rfr2_Gcc.a(machwdManager.o)
 .text.RF_CalibrationReq
                0x00000000        0xc ../../../../BitCloud/lib/libBc_All_Atmega256rfr2_Atmega256rfr2_Gcc.a(machwdManager.o)
 .text.RF_RegWriteReq
                0x00000000        0xc ../../../../BitCloud/lib/libBc_All_Atmega256rfr2_Atmega256rfr2_Gcc.a(machwdManager.o)
 .text.RF_RegReadReq
                0x00000000        0xc ../../../../BitCloud/lib/libBc_All_Atmega256rfr2_Atmega256rfr2_Gcc.a(machwdManager.o)
 .text.MAC_PHY_HWD_ForceTaskHandler
                0x00000000       0x32 ../../../../BitCloud/lib/libBc_All_Atmega256rfr2_Atmega256rfr2_Gcc.a(machwdManager.o)
 .text          0x00000000        0x0 ../../../../BitCloud/lib/libBc_All_Atmega256rfr2_Atmega256rfr2_Gcc.a(machwdRegAccessHandler.o)
 .data          0x00000000        0x0 ../../../../BitCloud/lib/libBc_All_Atmega256rfr2_Atmega256rfr2_Gcc.a(machwdRegAccessHandler.o)
 .text.machwdResetRegAccessHandler
                0x00000000        0x6 ../../../../BitCloud/lib/libBc_All_Atmega256rfr2_Atmega256rfr2_Gcc.a(machwdRegAccessHandler.o)
 .text          0x00000000        0x0 ../../../../BitCloud/lib/libBc_All_Atmega256rfr2_Atmega256rfr2_Gcc.a(machwdResetHandler.o)
 .data          0x00000000        0x0 ../../../../BitCloud/lib/libBc_All_Atmega256rfr2_Atmega256rfr2_Gcc.a(machwdResetHandler.o)
 .bss           0x00000000        0x0 ../../../../BitCloud/lib/libBc_All_Atmega256rfr2_Atmega256rfr2_Gcc.a(machwdResetHandler.o)
 .text          0x00000000        0x0 ../../../../BitCloud/lib/libBc_All_Atmega256rfr2_Atmega256rfr2_Gcc.a(machwdRndHandler.o)
 .data          0x00000000        0x0 ../../../../BitCloud/lib/libBc_All_Atmega256rfr2_Atmega256rfr2_Gcc.a(machwdRndHandler.o)
 .text          0x00000000        0x0 ../../../../BitCloud/lib/libBc_All_Atmega256rfr2_Atmega256rfr2_Gcc.a(machwdRxBuffer.o)
 .data          0x00000000        0x0 ../../../../BitCloud/lib/libBc_All_Atmega256rfr2_Atmega256rfr2_Gcc.a(machwdRxBuffer.o)
 .bss           0x00000000        0x0 ../../../../BitCloud/lib/libBc_All_Atmega256rfr2_Atmega256rfr2_Gcc.a(machwdRxBuffer.o)
 .text          0x00000000        0x0 ../../../../BitCloud/lib/libBc_All_Atmega256rfr2_Atmega256rfr2_Gcc.a(machwdRxFrameHandler.o)
 .data          0x00000000        0x0 ../../../../BitCloud/lib/libBc_All_Atmega256rfr2_Atmega256rfr2_Gcc.a(machwdRxFrameHandler.o)
 .bss           0x00000000        0x0 ../../../../BitCloud/lib/libBc_All_Atmega256rfr2_Atmega256rfr2_Gcc.a(machwdRxFrameHandler.o)
 .text          0x00000000        0x0 ../../../../BitCloud/lib/libBc_All_Atmega256rfr2_Atmega256rfr2_Gcc.a(machwdSetHandler.o)
 .data          0x00000000        0x0 ../../../../BitCloud/lib/libBc_All_Atmega256rfr2_Atmega256rfr2_Gcc.a(machwdSetHandler.o)
 .text.machwdIsBeaconRxMode
                0x00000000        0x6 ../../../../BitCloud/lib/libBc_All_Atmega256rfr2_Atmega256rfr2_Gcc.a(machwdSetHandler.o)
 .text          0x00000000        0x0 ../../../../BitCloud/lib/libBc_All_Atmega256rfr2_Atmega256rfr2_Gcc.a(machwdTrxCtrl.o)
 .data          0x00000000        0x0 ../../../../BitCloud/lib/libBc_All_Atmega256rfr2_Atmega256rfr2_Gcc.a(machwdTrxCtrl.o)
 .bss           0x00000000        0x0 ../../../../BitCloud/lib/libBc_All_Atmega256rfr2_Atmega256rfr2_Gcc.a(machwdTrxCtrl.o)
 .text          0x00000000        0x0 ../../../../BitCloud/lib/libBc_All_Atmega256rfr2_Atmega256rfr2_Gcc.a(machwdTrxHandler.o)
 .data          0x00000000        0x0 ../../../../BitCloud/lib/libBc_All_Atmega256rfr2_Atmega256rfr2_Gcc.a(machwdTrxHandler.o)
 .text          0x00000000        0x0 ../../../../BitCloud/lib/libBc_All_Atmega256rfr2_Atmega256rfr2_Gcc.a(machwdTxFrameHandler.o)
 .data          0x00000000        0x0 ../../../../BitCloud/lib/libBc_All_Atmega256rfr2_Atmega256rfr2_Gcc.a(machwdTxFrameHandler.o)
 .text          0x00000000        0x0 ../../../../BitCloud/lib/libBc_All_Atmega256rfr2_Atmega256rfr2_Gcc.a(machwiManager.o)
 .bss           0x00000000        0x0 ../../../../BitCloud/lib/libBc_All_Atmega256rfr2_Atmega256rfr2_Gcc.a(machwiManager.o)
 .text.MAC_HWI_ForceTaskHandler
                0x00000000       0x10 ../../../../BitCloud/lib/libBc_All_Atmega256rfr2_Atmega256rfr2_Gcc.a(machwiManager.o)
 .text.MAC_PurgeReq
                0x00000000        0xc ../../../../BitCloud/lib/libBc_All_Atmega256rfr2_Atmega256rfr2_Gcc.a(machwiManager.o)
 .text          0x00000000        0x0 ../../../../BitCloud/lib/libBc_All_Atmega256rfr2_Atmega256rfr2_Gcc.a(machwiOrphanHandler.o)
 .data          0x00000000        0x0 ../../../../BitCloud/lib/libBc_All_Atmega256rfr2_Atmega256rfr2_Gcc.a(machwiOrphanHandler.o)
 .bss           0x00000000        0x0 ../../../../BitCloud/lib/libBc_All_Atmega256rfr2_Atmega256rfr2_Gcc.a(machwiOrphanHandler.o)
 .text          0x00000000        0x0 ../../../../BitCloud/lib/libBc_All_Atmega256rfr2_Atmega256rfr2_Gcc.a(machwiPanServer.o)
 .data          0x00000000        0x0 ../../../../BitCloud/lib/libBc_All_Atmega256rfr2_Atmega256rfr2_Gcc.a(machwiPanServer.o)
 .bss           0x00000000        0x0 ../../../../BitCloud/lib/libBc_All_Atmega256rfr2_Atmega256rfr2_Gcc.a(machwiPanServer.o)
 .text          0x00000000        0x0 ../../../../BitCloud/lib/libBc_All_Atmega256rfr2_Atmega256rfr2_Gcc.a(machwiPollHandler.o)
 .data          0x00000000        0x0 ../../../../BitCloud/lib/libBc_All_Atmega256rfr2_Atmega256rfr2_Gcc.a(machwiPollHandler.o)
 .bss           0x00000000        0x0 ../../../../BitCloud/lib/libBc_All_Atmega256rfr2_Atmega256rfr2_Gcc.a(machwiPollHandler.o)
 .text          0x00000000        0x0 ../../../../BitCloud/lib/libBc_All_Atmega256rfr2_Atmega256rfr2_Gcc.a(machwiPurgeHandler.o)
 .data          0x00000000        0x0 ../../../../BitCloud/lib/libBc_All_Atmega256rfr2_Atmega256rfr2_Gcc.a(machwiPurgeHandler.o)
 .bss           0x00000000        0x0 ../../../../BitCloud/lib/libBc_All_Atmega256rfr2_Atmega256rfr2_Gcc.a(machwiPurgeHandler.o)
 .text          0x00000000        0x0 ../../../../BitCloud/lib/libBc_All_Atmega256rfr2_Atmega256rfr2_Gcc.a(machwiResetHandler.o)
 .data          0x00000000        0x0 ../../../../BitCloud/lib/libBc_All_Atmega256rfr2_Atmega256rfr2_Gcc.a(machwiResetHandler.o)
 .bss           0x00000000        0x0 ../../../../BitCloud/lib/libBc_All_Atmega256rfr2_Atmega256rfr2_Gcc.a(machwiResetHandler.o)
 .text          0x00000000        0x0 ../../../../BitCloud/lib/libBc_All_Atmega256rfr2_Atmega256rfr2_Gcc.a(machwiRxEnableHandler.o)
 .data          0x00000000        0x0 ../../../../BitCloud/lib/libBc_All_Atmega256rfr2_Atmega256rfr2_Gcc.a(machwiRxEnableHandler.o)
 .bss           0x00000000        0x0 ../../../../BitCloud/lib/libBc_All_Atmega256rfr2_Atmega256rfr2_Gcc.a(machwiRxEnableHandler.o)
 .text          0x00000000        0x0 ../../../../BitCloud/lib/libBc_All_Atmega256rfr2_Atmega256rfr2_Gcc.a(machwiScanHandler.o)
 .data          0x00000000        0x0 ../../../../BitCloud/lib/libBc_All_Atmega256rfr2_Atmega256rfr2_Gcc.a(machwiScanHandler.o)
 .text          0x00000000        0x0 ../../../../BitCloud/lib/libBc_All_Atmega256rfr2_Atmega256rfr2_Gcc.a(machwiSetGetHandler.o)
 .data          0x00000000        0x0 ../../../../BitCloud/lib/libBc_All_Atmega256rfr2_Atmega256rfr2_Gcc.a(machwiSetGetHandler.o)
 .bss           0x00000000        0x0 ../../../../BitCloud/lib/libBc_All_Atmega256rfr2_Atmega256rfr2_Gcc.a(machwiSetGetHandler.o)
 .text          0x00000000        0x0 ../../../../BitCloud/lib/libBc_All_Atmega256rfr2_Atmega256rfr2_Gcc.a(machwiStartHandler.o)
 .data          0x00000000        0x0 ../../../../BitCloud/lib/libBc_All_Atmega256rfr2_Atmega256rfr2_Gcc.a(machwiStartHandler.o)
 .bss           0x00000000        0x0 ../../../../BitCloud/lib/libBc_All_Atmega256rfr2_Atmega256rfr2_Gcc.a(machwiStartHandler.o)
 .text          0x00000000        0x0 ../../../../BitCloud/lib/libBc_All_Atmega256rfr2_Atmega256rfr2_Gcc.a(machwiSwitchRxCtrl.o)
 .data          0x00000000        0x0 ../../../../BitCloud/lib/libBc_All_Atmega256rfr2_Atmega256rfr2_Gcc.a(machwiSwitchRxCtrl.o)
 .bss           0x00000000        0x0 ../../../../BitCloud/lib/libBc_All_Atmega256rfr2_Atmega256rfr2_Gcc.a(machwiSwitchRxCtrl.o)
 .text          0x00000000        0x0 ../../../../BitCloud/lib/libBc_All_Atmega256rfr2_Atmega256rfr2_Gcc.a(machwiTransactionHandler.o)
 .data          0x00000000        0x0 ../../../../BitCloud/lib/libBc_All_Atmega256rfr2_Atmega256rfr2_Gcc.a(machwiTransactionHandler.o)
 .bss           0x00000000        0x0 ../../../../BitCloud/lib/libBc_All_Atmega256rfr2_Atmega256rfr2_Gcc.a(machwiTransactionHandler.o)
 .text          0x00000000        0x0 ../../../../BitCloud/lib/libBc_All_Atmega256rfr2_Atmega256rfr2_Gcc.a(machwiTransactionQueue.o)
 .data          0x00000000        0x0 ../../../../BitCloud/lib/libBc_All_Atmega256rfr2_Atmega256rfr2_Gcc.a(machwiTransactionQueue.o)
 .bss           0x00000000        0x0 ../../../../BitCloud/lib/libBc_All_Atmega256rfr2_Atmega256rfr2_Gcc.a(machwiTransactionQueue.o)
 .text          0x00000000        0x0 ../../../../BitCloud/lib/libBc_All_Atmega256rfr2_Atmega256rfr2_Gcc.a(nwk.o)
 .text.nwkAddressMacSetConf
                0x00000000       0x76 ../../../../BitCloud/lib/libBc_All_Atmega256rfr2_Atmega256rfr2_Gcc.a(nwk.o)
 .text.NWK_SetShortAddr
                0x00000000       0x52 ../../../../BitCloud/lib/libBc_All_Atmega256rfr2_Atmega256rfr2_Gcc.a(nwk.o)
 .text.NWK_AddGroup
                0x00000000       0x4e ../../../../BitCloud/lib/libBc_All_Atmega256rfr2_Atmega256rfr2_Gcc.a(nwk.o)
 .text.NWK_RemoveGroup
                0x00000000       0x70 ../../../../BitCloud/lib/libBc_All_Atmega256rfr2_Atmega256rfr2_Gcc.a(nwk.o)
 .text.NWK_RemoveAllGroups
                0x00000000       0x78 ../../../../BitCloud/lib/libBc_All_Atmega256rfr2_Atmega256rfr2_Gcc.a(nwk.o)
 .text.NWK_GroupCapacity
                0x00000000       0x24 ../../../../BitCloud/lib/libBc_All_Atmega256rfr2_Atmega256rfr2_Gcc.a(nwk.o)
 .text.NWK_NextGroup
                0x00000000       0x34 ../../../../BitCloud/lib/libBc_All_Atmega256rfr2_Atmega256rfr2_Gcc.a(nwk.o)
 .text.NWK_SetPanId
                0x00000000        0xa ../../../../BitCloud/lib/libBc_All_Atmega256rfr2_Atmega256rfr2_Gcc.a(nwk.o)
 .text.NWK_GetManagerAddr
                0x00000000        0xa ../../../../BitCloud/lib/libBc_All_Atmega256rfr2_Atmega256rfr2_Gcc.a(nwk.o)
 .text.NWK_GetUpdateId
                0x00000000        0x6 ../../../../BitCloud/lib/libBc_All_Atmega256rfr2_Atmega256rfr2_Gcc.a(nwk.o)
 .text.NWK_SetSymLink
                0x00000000        0x6 ../../../../BitCloud/lib/libBc_All_Atmega256rfr2_Atmega256rfr2_Gcc.a(nwk.o)
 .text.NWK_GetProtocolVersion
                0x00000000        0x6 ../../../../BitCloud/lib/libBc_All_Atmega256rfr2_Atmega256rfr2_Gcc.a(nwk.o)
 .text.NWK_FindAnyRouteAtFirstTime
                0x00000000        0x6 ../../../../BitCloud/lib/libBc_All_Atmega256rfr2_Atmega256rfr2_Gcc.a(nwk.o)
 .text.NWK_IsNewUpdateIdMoreRecent
                0x00000000       0x2e ../../../../BitCloud/lib/libBc_All_Atmega256rfr2_Atmega256rfr2_Gcc.a(nwk.o)
 .text.NWK_GetNeighborsRssi
                0x00000000       0x3a ../../../../BitCloud/lib/libBc_All_Atmega256rfr2_Atmega256rfr2_Gcc.a(nwk.o)
 .text.NWK_SetRejoinPermit
                0x00000000        0xa ../../../../BitCloud/lib/libBc_All_Atmega256rfr2_Atmega256rfr2_Gcc.a(nwk.o)
 .text.NWK_GetNextHop
                0x00000000       0x4e ../../../../BitCloud/lib/libBc_All_Atmega256rfr2_Atmega256rfr2_Gcc.a(nwk.o)
 .text.NWK_SetFailRouteOrder
                0x00000000       0x10 ../../../../BitCloud/lib/libBc_All_Atmega256rfr2_Atmega256rfr2_Gcc.a(nwk.o)
 .text          0x00000000        0x0 ../../../../BitCloud/lib/libBc_All_Atmega256rfr2_Atmega256rfr2_Gcc.a(phyAntDiversity.o)
 .bss           0x00000000        0x0 ../../../../BitCloud/lib/libBc_All_Atmega256rfr2_Atmega256rfr2_Gcc.a(phyAntDiversity.o)
 .text.phyRxAntennaDiversity
                0x00000000       0x18 ../../../../BitCloud/lib/libBc_All_Atmega256rfr2_Atmega256rfr2_Gcc.a(phyAntDiversity.o)
 .text.phyAntennaDiversityInit
                0x00000000       0x24 ../../../../BitCloud/lib/libBc_All_Atmega256rfr2_Atmega256rfr2_Gcc.a(phyAntDiversity.o)
 .text.phyTxAntennaDiversity
                0x00000000       0x60 ../../../../BitCloud/lib/libBc_All_Atmega256rfr2_Atmega256rfr2_Gcc.a(phyAntDiversity.o)
 .text.phyAntennaSwitcher
                0x00000000       0x48 ../../../../BitCloud/lib/libBc_All_Atmega256rfr2_Atmega256rfr2_Gcc.a(phyAntDiversity.o)
 .text.phyAntennaSwitcherOn
                0x00000000        0x8 ../../../../BitCloud/lib/libBc_All_Atmega256rfr2_Atmega256rfr2_Gcc.a(phyAntDiversity.o)
 .text.phyAntennaSwitcherOff
                0x00000000        0x8 ../../../../BitCloud/lib/libBc_All_Atmega256rfr2_Atmega256rfr2_Gcc.a(phyAntDiversity.o)
 .text.phySwitchLastTxAntenna
                0x00000000        0xc ../../../../BitCloud/lib/libBc_All_Atmega256rfr2_Atmega256rfr2_Gcc.a(phyAntDiversity.o)
 .text          0x00000000        0x0 ../../../../BitCloud/lib/libBc_All_Atmega256rfr2_Atmega256rfr2_Gcc.a(phyInit.o)
 .data          0x00000000        0x0 ../../../../BitCloud/lib/libBc_All_Atmega256rfr2_Atmega256rfr2_Gcc.a(phyInit.o)
 .bss           0x00000000        0x0 ../../../../BitCloud/lib/libBc_All_Atmega256rfr2_Atmega256rfr2_Gcc.a(phyInit.o)
 .text          0x00000000        0x0 ../../../../BitCloud/lib/libBc_All_Atmega256rfr2_Atmega256rfr2_Gcc.a(phyRegAccess.o)
 .data          0x00000000        0x0 ../../../../BitCloud/lib/libBc_All_Atmega256rfr2_Atmega256rfr2_Gcc.a(phyRegAccess.o)
 .bss           0x00000000        0x0 ../../../../BitCloud/lib/libBc_All_Atmega256rfr2_Atmega256rfr2_Gcc.a(phyRegAccess.o)
 .text          0x00000000        0x0 ../../../../BitCloud/lib/libBc_All_Atmega256rfr2_Atmega256rfr2_Gcc.a(phyReset.o)
 .data          0x00000000        0x0 ../../../../BitCloud/lib/libBc_All_Atmega256rfr2_Atmega256rfr2_Gcc.a(phyReset.o)
 .bss           0x00000000        0x0 ../../../../BitCloud/lib/libBc_All_Atmega256rfr2_Atmega256rfr2_Gcc.a(phyReset.o)
 .text          0x00000000        0x0 ../../../../BitCloud/lib/libBc_All_Atmega256rfr2_Atmega256rfr2_Gcc.a(phyRfIrqDispatcher.o)
 .data          0x00000000        0x0 ../../../../BitCloud/lib/libBc_All_Atmega256rfr2_Atmega256rfr2_Gcc.a(phyRfIrqDispatcher.o)
 .text.PHY_RegisterTxEndCallback
                0x00000000        0x2 ../../../../BitCloud/lib/libBc_All_Atmega256rfr2_Atmega256rfr2_Gcc.a(phyRfIrqDispatcher.o)
 .text          0x00000000        0x0 ../../../../BitCloud/lib/libBc_All_Atmega256rfr2_Atmega256rfr2_Gcc.a(phyRnd.o)
 .data          0x00000000        0x0 ../../../../BitCloud/lib/libBc_All_Atmega256rfr2_Atmega256rfr2_Gcc.a(phyRnd.o)
 .bss           0x00000000        0x0 ../../../../BitCloud/lib/libBc_All_Atmega256rfr2_Atmega256rfr2_Gcc.a(phyRnd.o)
 .text          0x00000000        0x0 ../../../../BitCloud/lib/libBc_All_Atmega256rfr2_Atmega256rfr2_Gcc.a(phySet.o)
 .data          0x00000000        0x0 ../../../../BitCloud/lib/libBc_All_Atmega256rfr2_Atmega256rfr2_Gcc.a(phySet.o)
 .text.PHY_Enable_TxStartIRQ
                0x00000000        0xc ../../../../BitCloud/lib/libBc_All_Atmega256rfr2_Atmega256rfr2_Gcc.a(phySet.o)
 .text.PHY_SetTestCarrierInit
                0x00000000        0x2 ../../../../BitCloud/lib/libBc_All_Atmega256rfr2_Atmega256rfr2_Gcc.a(phySet.o)
 .text.PHY_SetTestCarrier
                0x00000000       0x7c ../../../../BitCloud/lib/libBc_All_Atmega256rfr2_Atmega256rfr2_Gcc.a(phySet.o)
 .text.PHY_setTxPowerDirectly
                0x00000000        0xc ../../../../BitCloud/lib/libBc_All_Atmega256rfr2_Atmega256rfr2_Gcc.a(phySet.o)
 .text          0x00000000        0x0 ../../../../BitCloud/lib/libBc_All_Atmega256rfr2_Atmega256rfr2_Gcc.a(phySetTrxState.o)
 .data          0x00000000        0x0 ../../../../BitCloud/lib/libBc_All_Atmega256rfr2_Atmega256rfr2_Gcc.a(phySetTrxState.o)
 .bss           0x00000000        0x0 ../../../../BitCloud/lib/libBc_All_Atmega256rfr2_Atmega256rfr2_Gcc.a(phySetTrxState.o)
 COMMON         0x00000000        0x1 ../../../../BitCloud/lib/libBc_All_Atmega256rfr2_Atmega256rfr2_Gcc.a(phySetTrxState.o)
 .text          0x00000000        0x0 ../../../../BitCloud/lib/libBc_All_Atmega256rfr2_Atmega256rfr2_Gcc.a(phyStateMachine.o)
 .data          0x00000000        0x0 ../../../../BitCloud/lib/libBc_All_Atmega256rfr2_Atmega256rfr2_Gcc.a(phyStateMachine.o)
 .text          0x00000000        0x0 ../../../../BitCloud/lib/libBc_All_Atmega256rfr2_Atmega256rfr2_Gcc.a(phyTxFrame.o)
 .data          0x00000000        0x0 ../../../../BitCloud/lib/libBc_All_Atmega256rfr2_Atmega256rfr2_Gcc.a(phyTxFrame.o)
 .bss           0x00000000        0x0 ../../../../BitCloud/lib/libBc_All_Atmega256rfr2_Atmega256rfr2_Gcc.a(phyTxFrame.o)
 .text          0x00000000        0x0 ../../../../BitCloud/lib/libBc_All_Atmega256rfr2_Atmega256rfr2_Gcc.a(phyTxPowerConverter.o)
 .data          0x00000000        0x0 ../../../../BitCloud/lib/libBc_All_Atmega256rfr2_Atmega256rfr2_Gcc.a(phyTxPowerConverter.o)
 .bss           0x00000000        0x0 ../../../../BitCloud/lib/libBc_All_Atmega256rfr2_Atmega256rfr2_Gcc.a(phyTxPowerConverter.o)
 .text.PHY_ConvertTxPowerToDbm
                0x00000000       0x14 ../../../../BitCloud/lib/libBc_All_Atmega256rfr2_Atmega256rfr2_Gcc.a(phyTxPowerConverter.o)
 .rodata        0x00000000       0x10 ../../../../BitCloud/lib/libBc_All_Atmega256rfr2_Atmega256rfr2_Gcc.a(phyTxPowerConverter.o)
 .text          0x00000000        0x0 ../../../../BitCloud/lib/libBc_All_Atmega256rfr2_Atmega256rfr2_Gcc.a(zdo.o)
 .text.setTxPowerConf
                0x00000000       0x30 ../../../../BitCloud/lib/libBc_All_Atmega256rfr2_Atmega256rfr2_Gcc.a(zdo.o)
 .text.ZDO_NotifyGeneral
                0x00000000        0x6 ../../../../BitCloud/lib/libBc_All_Atmega256rfr2_Atmega256rfr2_Gcc.a(zdo.o)
 .text.ZDO_GetLqiRssi
                0x00000000       0x36 ../../../../BitCloud/lib/libBc_All_Atmega256rfr2_Atmega256rfr2_Gcc.a(zdo.o)
 .text.ZDO_GetParentAddr
                0x00000000       0x5c ../../../../BitCloud/lib/libBc_All_Atmega256rfr2_Atmega256rfr2_Gcc.a(zdo.o)
 .text.ZDO_GetChildrenAddr
                0x00000000       0xca ../../../../BitCloud/lib/libBc_All_Atmega256rfr2_Atmega256rfr2_Gcc.a(zdo.o)
 .text.ZDO_SetTxPowerReq
                0x00000000       0x2c ../../../../BitCloud/lib/libBc_All_Atmega256rfr2_Atmega256rfr2_Gcc.a(zdo.o)
 .text.ZDO_GetNeibAmount
                0x00000000       0x66 ../../../../BitCloud/lib/libBc_All_Atmega256rfr2_Atmega256rfr2_Gcc.a(zdo.o)
 .text.ZDO_GetNeibTable
                0x00000000      0x112 ../../../../BitCloud/lib/libBc_All_Atmega256rfr2_Atmega256rfr2_Gcc.a(zdo.o)
 .text.ZDO_WakeUpReq
                0x00000000       0x1c ../../../../BitCloud/lib/libBc_All_Atmega256rfr2_Atmega256rfr2_Gcc.a(zdo.o)
 .text.zdoAuthenticationStart
                0x00000000        0x6 ../../../../BitCloud/lib/libBc_All_Atmega256rfr2_Atmega256rfr2_Gcc.a(zdo.o)
 .text.ZDO_IncreaseJoinAttemptsAmount
                0x00000000        0xc ../../../../BitCloud/lib/libBc_All_Atmega256rfr2_Atmega256rfr2_Gcc.a(zdo.o)
 .text.zdoAuthenticationConf
                0x00000000       0x2a ../../../../BitCloud/lib/libBc_All_Atmega256rfr2_Atmega256rfr2_Gcc.a(zdo.o)
 .text.ZDO_GetNodeDescriptor
                0x00000000        0x6 ../../../../BitCloud/lib/libBc_All_Atmega256rfr2_Atmega256rfr2_Gcc.a(zdo.o)
 .text.ZDO_ZdpReqDeleteQueueElem
                0x00000000        0xc ../../../../BitCloud/lib/libBc_All_Atmega256rfr2_Atmega256rfr2_Gcc.a(zdo.o)
 .text          0x00000000        0x0 ../../../../BitCloud/lib/libBc_All_Atmega256rfr2_Atmega256rfr2_Gcc.a(macMem.o)
 .data          0x00000000        0x0 ../../../../BitCloud/lib/libBc_All_Atmega256rfr2_Atmega256rfr2_Gcc.a(macMem.o)
 .bss           0x00000000        0x0 ../../../../BitCloud/lib/libBc_All_Atmega256rfr2_Atmega256rfr2_Gcc.a(macMem.o)
 .text          0x00000000        0x0 ../../../../BitCloud/lib/libBc_All_Atmega256rfr2_Atmega256rfr2_Gcc.a(machwdBatMonHandler.o)
 .data          0x00000000        0x0 ../../../../BitCloud/lib/libBc_All_Atmega256rfr2_Atmega256rfr2_Gcc.a(machwdBatMonHandler.o)
 .text          0x00000000        0x0 ../../../../BitCloud/lib/libBc_All_Atmega256rfr2_Atmega256rfr2_Gcc.a(machwdCalibHandler.o)
 .data          0x00000000        0x0 ../../../../BitCloud/lib/libBc_All_Atmega256rfr2_Atmega256rfr2_Gcc.a(machwdCalibHandler.o)
 .text          0x00000000        0x0 ../../../../BitCloud/lib/libBc_All_Atmega256rfr2_Atmega256rfr2_Gcc.a(machwdEdHandler.o)
 .data          0x00000000        0x0 ../../../../BitCloud/lib/libBc_All_Atmega256rfr2_Atmega256rfr2_Gcc.a(machwdEdHandler.o)
 .text          0x00000000        0x0 ../../../../BitCloud/lib/libBc_All_Atmega256rfr2_Atmega256rfr2_Gcc.a(machwdFrameRoutine.o)
 .data          0x00000000        0x0 ../../../../BitCloud/lib/libBc_All_Atmega256rfr2_Atmega256rfr2_Gcc.a(machwdFrameRoutine.o)
 .bss           0x00000000        0x0 ../../../../BitCloud/lib/libBc_All_Atmega256rfr2_Atmega256rfr2_Gcc.a(machwdFrameRoutine.o)
 .text          0x00000000        0x0 ../../../../BitCloud/lib/libBc_All_Atmega256rfr2_Atmega256rfr2_Gcc.a(machwdHandlerCtrl.o)
 .text          0x00000000        0x0 ../../../../BitCloud/lib/libBc_All_Atmega256rfr2_Atmega256rfr2_Gcc.a(machwiAssociateHandler.o)
 .data          0x00000000        0x0 ../../../../BitCloud/lib/libBc_All_Atmega256rfr2_Atmega256rfr2_Gcc.a(machwiAssociateHandler.o)
 .bss           0x00000000        0x0 ../../../../BitCloud/lib/libBc_All_Atmega256rfr2_Atmega256rfr2_Gcc.a(machwiAssociateHandler.o)
 .text          0x00000000        0x0 ../../../../BitCloud/lib/libBc_All_Atmega256rfr2_Atmega256rfr2_Gcc.a(machwiBanNode.o)
 .data          0x00000000        0x0 ../../../../BitCloud/lib/libBc_All_Atmega256rfr2_Atmega256rfr2_Gcc.a(machwiBanNode.o)
 .bss           0x00000000        0x0 ../../../../BitCloud/lib/libBc_All_Atmega256rfr2_Atmega256rfr2_Gcc.a(machwiBanNode.o)
 .text.MAC_BanNode
                0x00000000       0xaa ../../../../BitCloud/lib/libBc_All_Atmega256rfr2_Atmega256rfr2_Gcc.a(machwiBanNode.o)
 .text.MAC_ResetBanTable
                0x00000000       0x5e ../../../../BitCloud/lib/libBc_All_Atmega256rfr2_Atmega256rfr2_Gcc.a(machwiBanNode.o)
 .text.MAC_BanAllNodes
                0x00000000        0x6 ../../../../BitCloud/lib/libBc_All_Atmega256rfr2_Atmega256rfr2_Gcc.a(machwiBanNode.o)
 .text          0x00000000        0x0 ../../../../BitCloud/lib/libBc_All_Atmega256rfr2_Atmega256rfr2_Gcc.a(machwiBeaconHandler.o)
 .data          0x00000000        0x0 ../../../../BitCloud/lib/libBc_All_Atmega256rfr2_Atmega256rfr2_Gcc.a(machwiBeaconHandler.o)
 .bss           0x00000000        0x0 ../../../../BitCloud/lib/libBc_All_Atmega256rfr2_Atmega256rfr2_Gcc.a(machwiBeaconHandler.o)
 .text          0x00000000        0x0 ../../../../BitCloud/lib/libBc_All_Atmega256rfr2_Atmega256rfr2_Gcc.a(machwiDataHandler.o)
 .data          0x00000000        0x0 ../../../../BitCloud/lib/libBc_All_Atmega256rfr2_Atmega256rfr2_Gcc.a(machwiDataHandler.o)
 .bss           0x00000000        0x0 ../../../../BitCloud/lib/libBc_All_Atmega256rfr2_Atmega256rfr2_Gcc.a(machwiDataHandler.o)
 .text          0x00000000        0x0 ../../../../BitCloud/lib/libBc_All_Atmega256rfr2_Atmega256rfr2_Gcc.a(machwiTransactionHash.o)
 .data          0x00000000        0x0 ../../../../BitCloud/lib/libBc_All_Atmega256rfr2_Atmega256rfr2_Gcc.a(machwiTransactionHash.o)
 .bss           0x00000000        0x0 ../../../../BitCloud/lib/libBc_All_Atmega256rfr2_Atmega256rfr2_Gcc.a(machwiTransactionHash.o)
 .text.machwiIsDataPending
                0x00000000      0x138 ../../../../BitCloud/lib/libBc_All_Atmega256rfr2_Atmega256rfr2_Gcc.a(machwiTransactionHash.o)
 .text          0x00000000        0x0 ../../../../BitCloud/lib/libBc_All_Atmega256rfr2_Atmega256rfr2_Gcc.a(phyBatMon.o)
 .data          0x00000000        0x0 ../../../../BitCloud/lib/libBc_All_Atmega256rfr2_Atmega256rfr2_Gcc.a(phyBatMon.o)
 .bss           0x00000000        0x0 ../../../../BitCloud/lib/libBc_All_Atmega256rfr2_Atmega256rfr2_Gcc.a(phyBatMon.o)
 .text          0x00000000        0x0 ../../../../BitCloud/lib/libBc_All_Atmega256rfr2_Atmega256rfr2_Gcc.a(phyCalib.o)
 .data          0x00000000        0x0 ../../../../BitCloud/lib/libBc_All_Atmega256rfr2_Atmega256rfr2_Gcc.a(phyCalib.o)
 .bss           0x00000000        0x0 ../../../../BitCloud/lib/libBc_All_Atmega256rfr2_Atmega256rfr2_Gcc.a(phyCalib.o)
 .text          0x00000000        0x0 ../../../../BitCloud/lib/libBc_All_Atmega256rfr2_Atmega256rfr2_Gcc.a(phyEd.o)
 .data          0x00000000        0x0 ../../../../BitCloud/lib/libBc_All_Atmega256rfr2_Atmega256rfr2_Gcc.a(phyEd.o)
 .bss           0x00000000        0x0 ../../../../BitCloud/lib/libBc_All_Atmega256rfr2_Atmega256rfr2_Gcc.a(phyEd.o)
 .text          0x00000000        0x0 ../../../../BitCloud/lib/libBc_All_Atmega256rfr2_Atmega256rfr2_Gcc.a(phyRxTxIndicator.o)
 .data          0x00000000        0x0 ../../../../BitCloud/lib/libBc_All_Atmega256rfr2_Atmega256rfr2_Gcc.a(phyRxTxIndicator.o)
 .bss           0x00000000        0x0 ../../../../BitCloud/lib/libBc_All_Atmega256rfr2_Atmega256rfr2_Gcc.a(phyRxTxIndicator.o)
 .text.phyRxTxSwitcherOn
                0x00000000       0x20 ../../../../BitCloud/lib/libBc_All_Atmega256rfr2_Atmega256rfr2_Gcc.a(phyRxTxIndicator.o)
 .text.phyRxTxSwitcherOff
                0x00000000       0x20 ../../../../BitCloud/lib/libBc_All_Atmega256rfr2_Atmega256rfr2_Gcc.a(phyRxTxIndicator.o)
 .text          0x00000000        0x0 ../../../../BitCloud/lib/libHAL_MegaRf_Atmega256rfr2_8Mhz_Gcc.a(halDelay.o)
 .data          0x00000000        0x0 ../../../../BitCloud/lib/libHAL_MegaRf_Atmega256rfr2_8Mhz_Gcc.a(halDelay.o)
 .bss           0x00000000        0x0 ../../../../BitCloud/lib/libHAL_MegaRf_Atmega256rfr2_8Mhz_Gcc.a(halDelay.o)
 .text          0x00000000        0x0 ../../../../BitCloud/lib/libHAL_MegaRf_Atmega256rfr2_8Mhz_Gcc.a(halAppClock.o)
 .text.halGetSystemTimeUs
                0x00000000       0xf2 ../../../../BitCloud/lib/libHAL_MegaRf_Atmega256rfr2_8Mhz_Gcc.a(halAppClock.o)
 .text          0x00000000        0x0 ../../../../BitCloud/lib/libHAL_MegaRf_Atmega256rfr2_8Mhz_Gcc.a(halSleep.o)
 .data          0x00000000        0x0 ../../../../BitCloud/lib/libHAL_MegaRf_Atmega256rfr2_8Mhz_Gcc.a(halSleep.o)
 .text          0x00000000        0x0 ../../../../BitCloud/lib/libHAL_MegaRf_Atmega256rfr2_8Mhz_Gcc.a(calibration.o)
 .data          0x00000000        0x0 ../../../../BitCloud/lib/libHAL_MegaRf_Atmega256rfr2_8Mhz_Gcc.a(calibration.o)
 .bss           0x00000000        0x0 ../../../../BitCloud/lib/libHAL_MegaRf_Atmega256rfr2_8Mhz_Gcc.a(calibration.o)
 .text          0x00000000        0x0 ../../../../BitCloud/lib/libHAL_MegaRf_Atmega256rfr2_8Mhz_Gcc.a(halInit.o)
 .data          0x00000000        0x0 ../../../../BitCloud/lib/libHAL_MegaRf_Atmega256rfr2_8Mhz_Gcc.a(halInit.o)
 .bss           0x00000000        0x0 ../../../../BitCloud/lib/libHAL_MegaRf_Atmega256rfr2_8Mhz_Gcc.a(halInit.o)
 .text          0x00000000        0x0 ../../../../BitCloud/lib/libHAL_MegaRf_Atmega256rfr2_8Mhz_Gcc.a(halRfCtrl.o)
 .data          0x00000000        0x0 ../../../../BitCloud/lib/libHAL_MegaRf_Atmega256rfr2_8Mhz_Gcc.a(halRfCtrl.o)
 .bss           0x00000000        0x0 ../../../../BitCloud/lib/libHAL_MegaRf_Atmega256rfr2_8Mhz_Gcc.a(halRfCtrl.o)
 .text          0x00000000        0x0 ../../../../BitCloud/lib/libHAL_MegaRf_Atmega256rfr2_8Mhz_Gcc.a(halMacIsr.o)
 .data          0x00000000        0x0 ../../../../BitCloud/lib/libHAL_MegaRf_Atmega256rfr2_8Mhz_Gcc.a(halMacIsr.o)
 .bss           0x00000000        0x0 ../../../../BitCloud/lib/libHAL_MegaRf_Atmega256rfr2_8Mhz_Gcc.a(halMacIsr.o)
 .data          0x00000000        0x0 ../../../../BitCloud/lib/libHAL_MegaRf_Atmega256rfr2_8Mhz_Gcc.a(halW1.o)
 .bss           0x00000000        0x0 ../../../../BitCloud/lib/libHAL_MegaRf_Atmega256rfr2_8Mhz_Gcc.a(halW1.o)
 .data          0x00000000        0x0 ../../../../BitCloud/lib/libHAL_MegaRf_Atmega256rfr2_8Mhz_Gcc.a(halCalibration.o)
 .bss           0x00000000        0x0 ../../../../BitCloud/lib/libHAL_MegaRf_Atmega256rfr2_8Mhz_Gcc.a(halCalibration.o)
 .text          0x00000000        0x0 ../../../../BitCloud/lib/libHAL_MegaRf_Atmega256rfr2_8Mhz_Gcc.a(appTimer.o)
 .data          0x00000000        0x0 ../../../../BitCloud/lib/libHAL_MegaRf_Atmega256rfr2_8Mhz_Gcc.a(appTimer.o)
 .text          0x00000000        0x0 ../../../../BitCloud/lib/libHAL_MegaRf_Atmega256rfr2_8Mhz_Gcc.a(halTaskManager.o)
 .text          0x00000000        0x0 ../../../../BitCloud/lib/libHAL_MegaRf_Atmega256rfr2_8Mhz_Gcc.a(usart.o)
 .text.HAL_HoldOnOthersUsartTasks
                0x00000000       0x32 ../../../../BitCloud/lib/libHAL_MegaRf_Atmega256rfr2_8Mhz_Gcc.a(usart.o)
 .text.HAL_ReleaseAllHeldUsartTasks
                0x00000000       0x40 ../../../../BitCloud/lib/libHAL_MegaRf_Atmega256rfr2_8Mhz_Gcc.a(usart.o)
 .text.HAL_EnableDtrWakeUp
                0x00000000       0x10 ../../../../BitCloud/lib/libHAL_MegaRf_Atmega256rfr2_8Mhz_Gcc.a(usart.o)
 .text.HAL_DisableDtrWakeUp
                0x00000000        0x6 ../../../../BitCloud/lib/libHAL_MegaRf_Atmega256rfr2_8Mhz_Gcc.a(usart.o)
 .text.HAL_CloseUsart
                0x00000000       0xac ../../../../BitCloud/lib/libHAL_MegaRf_Atmega256rfr2_8Mhz_Gcc.a(usart.o)
 .text.HAL_ReadUsart
                0x00000000       0xe8 ../../../../BitCloud/lib/libHAL_MegaRf_Atmega256rfr2_8Mhz_Gcc.a(usart.o)
 .text.HAL_OnUsartCts
                0x00000000       0x52 ../../../../BitCloud/lib/libHAL_MegaRf_Atmega256rfr2_8Mhz_Gcc.a(usart.o)
 .text.HAL_OffUsartCts
                0x00000000       0x52 ../../../../BitCloud/lib/libHAL_MegaRf_Atmega256rfr2_8Mhz_Gcc.a(usart.o)
 .text.HAL_ReadUsartRts
                0x00000000       0x54 ../../../../BitCloud/lib/libHAL_MegaRf_Atmega256rfr2_8Mhz_Gcc.a(usart.o)
 .text.HAL_ReadUsartDtr
                0x00000000       0x54 ../../../../BitCloud/lib/libHAL_MegaRf_Atmega256rfr2_8Mhz_Gcc.a(usart.o)
 .text.HAL_IsTxEmpty
                0x00000000       0x66 ../../../../BitCloud/lib/libHAL_MegaRf_Atmega256rfr2_8Mhz_Gcc.a(usart.o)
 .text          0x00000000        0x0 ../../../../BitCloud/lib/libHAL_MegaRf_Atmega256rfr2_8Mhz_Gcc.a(irq.o)
 .data          0x00000000        0x0 ../../../../BitCloud/lib/libHAL_MegaRf_Atmega256rfr2_8Mhz_Gcc.a(irq.o)
 .bss           0x00000000        0x0 ../../../../BitCloud/lib/libHAL_MegaRf_Atmega256rfr2_8Mhz_Gcc.a(irq.o)
 .text.HAL_RegisterIrq
                0x00000000       0x64 ../../../../BitCloud/lib/libHAL_MegaRf_Atmega256rfr2_8Mhz_Gcc.a(irq.o)
 .text.HAL_EnableIrq
                0x00000000       0x36 ../../../../BitCloud/lib/libHAL_MegaRf_Atmega256rfr2_8Mhz_Gcc.a(irq.o)
 .text.HAL_DisableIrq
                0x00000000       0x38 ../../../../BitCloud/lib/libHAL_MegaRf_Atmega256rfr2_8Mhz_Gcc.a(irq.o)
 .text.HAL_UnregisterIrq
                0x00000000       0x4a ../../../../BitCloud/lib/libHAL_MegaRf_Atmega256rfr2_8Mhz_Gcc.a(irq.o)
 .comment       0x00000000       0x31 ../../../../BitCloud/lib/libHAL_MegaRf_Atmega256rfr2_8Mhz_Gcc.a(irq.o)
 .text          0x00000000        0x0 ../../../../BitCloud/lib/libHAL_MegaRf_Atmega256rfr2_8Mhz_Gcc.a(i2cPacket.o)
 .data          0x00000000        0x0 ../../../../BitCloud/lib/libHAL_MegaRf_Atmega256rfr2_8Mhz_Gcc.a(i2cPacket.o)
 .text.HAL_OpenI2cPacket
                0x00000000       0x3c ../../../../BitCloud/lib/libHAL_MegaRf_Atmega256rfr2_8Mhz_Gcc.a(i2cPacket.o)
 .text.HAL_CloseI2cPacket
                0x00000000       0x30 ../../../../BitCloud/lib/libHAL_MegaRf_Atmega256rfr2_8Mhz_Gcc.a(i2cPacket.o)
 .text.HAL_WriteI2cPacket
                0x00000000       0x50 ../../../../BitCloud/lib/libHAL_MegaRf_Atmega256rfr2_8Mhz_Gcc.a(i2cPacket.o)
 .text.HAL_ReadI2cPacket
                0x00000000       0x50 ../../../../BitCloud/lib/libHAL_MegaRf_Atmega256rfr2_8Mhz_Gcc.a(i2cPacket.o)
 .text          0x00000000        0x0 ../../../../BitCloud/lib/libHAL_MegaRf_Atmega256rfr2_8Mhz_Gcc.a(eeprom.o)
 .data          0x00000000        0x0 ../../../../BitCloud/lib/libHAL_MegaRf_Atmega256rfr2_8Mhz_Gcc.a(eeprom.o)
 .text.HAL_StopWriteToEeprom
                0x00000000       0x1a ../../../../BitCloud/lib/libHAL_MegaRf_Atmega256rfr2_8Mhz_Gcc.a(eeprom.o)
 .text          0x00000000        0x0 ../../../../BitCloud/lib/libHAL_MegaRf_Atmega256rfr2_8Mhz_Gcc.a(timer.o)
 .data          0x00000000        0x0 ../../../../BitCloud/lib/libHAL_MegaRf_Atmega256rfr2_8Mhz_Gcc.a(timer.o)
 .bss           0x00000000        0x0 ../../../../BitCloud/lib/libHAL_MegaRf_Atmega256rfr2_8Mhz_Gcc.a(timer.o)
 .text          0x00000000        0x0 ../../../../BitCloud/lib/libHAL_MegaRf_Atmega256rfr2_8Mhz_Gcc.a(adc.o)
 .data          0x00000000        0x0 ../../../../BitCloud/lib/libHAL_MegaRf_Atmega256rfr2_8Mhz_Gcc.a(adc.o)
 .text.HAL_OpenAdc
                0x00000000       0x56 ../../../../BitCloud/lib/libHAL_MegaRf_Atmega256rfr2_8Mhz_Gcc.a(adc.o)
 .text.HAL_ReadAdc
                0x00000000       0x2c ../../../../BitCloud/lib/libHAL_MegaRf_Atmega256rfr2_8Mhz_Gcc.a(adc.o)
 .text.HAL_CloseAdc
                0x00000000       0x26 ../../../../BitCloud/lib/libHAL_MegaRf_Atmega256rfr2_8Mhz_Gcc.a(adc.o)
 .text          0x00000000        0x0 ../../../../BitCloud/lib/libHAL_MegaRf_Atmega256rfr2_8Mhz_Gcc.a(spi.o)
 .data          0x00000000        0x0 ../../../../BitCloud/lib/libHAL_MegaRf_Atmega256rfr2_8Mhz_Gcc.a(spi.o)
 .bss           0x00000000        0x0 ../../../../BitCloud/lib/libHAL_MegaRf_Atmega256rfr2_8Mhz_Gcc.a(spi.o)
 .text.isClosedPd
                0x00000000        0xc ../../../../BitCloud/lib/libHAL_MegaRf_Atmega256rfr2_8Mhz_Gcc.a(spi.o)
 .text.isOpenedPd
                0x00000000        0xc ../../../../BitCloud/lib/libHAL_MegaRf_Atmega256rfr2_8Mhz_Gcc.a(spi.o)
 .text.halCheckSpiDescriptor
                0x00000000       0x2e ../../../../BitCloud/lib/libHAL_MegaRf_Atmega256rfr2_8Mhz_Gcc.a(spi.o)
 .text.halCheckUsartDescriptor
                0x00000000       0x54 ../../../../BitCloud/lib/libHAL_MegaRf_Atmega256rfr2_8Mhz_Gcc.a(spi.o)
 .text.HAL_OpenSpi
                0x00000000       0x86 ../../../../BitCloud/lib/libHAL_MegaRf_Atmega256rfr2_8Mhz_Gcc.a(spi.o)
 .text.HAL_CloseSpi
                0x00000000       0x62 ../../../../BitCloud/lib/libHAL_MegaRf_Atmega256rfr2_8Mhz_Gcc.a(spi.o)
 .text.HAL_WriteSpi
                0x00000000      0x106 ../../../../BitCloud/lib/libHAL_MegaRf_Atmega256rfr2_8Mhz_Gcc.a(spi.o)
 .text.HAL_ReadSpi
                0x00000000      0x132 ../../../../BitCloud/lib/libHAL_MegaRf_Atmega256rfr2_8Mhz_Gcc.a(spi.o)
 .text          0x00000000        0x0 ../../../../BitCloud/lib/libHAL_MegaRf_Atmega256rfr2_8Mhz_Gcc.a(sleep.o)
 .data          0x00000000        0x0 ../../../../BitCloud/lib/libHAL_MegaRf_Atmega256rfr2_8Mhz_Gcc.a(sleep.o)
 .text          0x00000000        0x0 ../../../../BitCloud/lib/libHAL_MegaRf_Atmega256rfr2_8Mhz_Gcc.a(halSleepTimerClock.o)
 .data          0x00000000        0x0 ../../../../BitCloud/lib/libHAL_MegaRf_Atmega256rfr2_8Mhz_Gcc.a(halSleepTimerClock.o)
 .text          0x00000000        0x0 ../../../../BitCloud/lib/libHAL_MegaRf_Atmega256rfr2_8Mhz_Gcc.a(halSecurityModule.o)
 .data          0x00000000        0x0 ../../../../BitCloud/lib/libHAL_MegaRf_Atmega256rfr2_8Mhz_Gcc.a(halSecurityModule.o)
 .text.HAL_SmEncryptReq
                0x00000000       0x3c ../../../../BitCloud/lib/libHAL_MegaRf_Atmega256rfr2_8Mhz_Gcc.a(halSecurityModule.o)
 .text.HAL_SmReset
                0x00000000       0x22 ../../../../BitCloud/lib/libHAL_MegaRf_Atmega256rfr2_8Mhz_Gcc.a(halSecurityModule.o)
 .text          0x00000000        0x0 ../../../../BitCloud/lib/libHAL_MegaRf_Atmega256rfr2_8Mhz_Gcc.a(halClkCtrl.o)
 .data          0x00000000        0x0 ../../../../BitCloud/lib/libHAL_MegaRf_Atmega256rfr2_8Mhz_Gcc.a(halClkCtrl.o)
 .text.HAL_ReadFreq
                0x00000000        0xa ../../../../BitCloud/lib/libHAL_MegaRf_Atmega256rfr2_8Mhz_Gcc.a(halClkCtrl.o)
 .text          0x00000000        0x0 ../../../../BitCloud/lib/libHAL_MegaRf_Atmega256rfr2_8Mhz_Gcc.a(halUsart.o)
 .data          0x00000000        0x0 ../../../../BitCloud/lib/libHAL_MegaRf_Atmega256rfr2_8Mhz_Gcc.a(halUsart.o)
 .bss           0x00000000        0x0 ../../../../BitCloud/lib/libHAL_MegaRf_Atmega256rfr2_8Mhz_Gcc.a(halUsart.o)
 .text          0x00000000        0x0 ../../../../BitCloud/lib/libHAL_MegaRf_Atmega256rfr2_8Mhz_Gcc.a(halIrq.o)
 .data          0x00000000        0x0 ../../../../BitCloud/lib/libHAL_MegaRf_Atmega256rfr2_8Mhz_Gcc.a(halIrq.o)
 .text.halClrIrqConfig
                0x00000000       0x7a ../../../../BitCloud/lib/libHAL_MegaRf_Atmega256rfr2_8Mhz_Gcc.a(halIrq.o)
 .text          0x00000000        0x0 ../../../../BitCloud/lib/libHAL_MegaRf_Atmega256rfr2_8Mhz_Gcc.a(halTwi.o)
 .data          0x00000000        0x0 ../../../../BitCloud/lib/libHAL_MegaRf_Atmega256rfr2_8Mhz_Gcc.a(halTwi.o)
 .bss           0x00000000        0x0 ../../../../BitCloud/lib/libHAL_MegaRf_Atmega256rfr2_8Mhz_Gcc.a(halTwi.o)
 .text.halInitI2c
                0x00000000        0xe ../../../../BitCloud/lib/libHAL_MegaRf_Atmega256rfr2_8Mhz_Gcc.a(halTwi.o)
 .text          0x00000000        0x0 ../../../../BitCloud/lib/libHAL_MegaRf_Atmega256rfr2_8Mhz_Gcc.a(halEeprom.o)
 .data          0x00000000        0x0 ../../../../BitCloud/lib/libHAL_MegaRf_Atmega256rfr2_8Mhz_Gcc.a(halEeprom.o)
 .bss           0x00000000        0x0 ../../../../BitCloud/lib/libHAL_MegaRf_Atmega256rfr2_8Mhz_Gcc.a(halEeprom.o)
 .text          0x00000000        0x0 ../../../../BitCloud/lib/libHAL_MegaRf_Atmega256rfr2_8Mhz_Gcc.a(halAdc.o)
 .data          0x00000000        0x0 ../../../../BitCloud/lib/libHAL_MegaRf_Atmega256rfr2_8Mhz_Gcc.a(halAdc.o)
 .bss           0x00000000        0x0 ../../../../BitCloud/lib/libHAL_MegaRf_Atmega256rfr2_8Mhz_Gcc.a(halAdc.o)
 .text.halOpenAdc
                0x00000000       0x5e ../../../../BitCloud/lib/libHAL_MegaRf_Atmega256rfr2_8Mhz_Gcc.a(halAdc.o)
 .text.halStartAdc
                0x00000000       0x96 ../../../../BitCloud/lib/libHAL_MegaRf_Atmega256rfr2_8Mhz_Gcc.a(halAdc.o)
 .text.halCloseAdc
                0x00000000        0xe ../../../../BitCloud/lib/libHAL_MegaRf_Atmega256rfr2_8Mhz_Gcc.a(halAdc.o)
 .progmem.data  0x00000000        0x5 ../../../../BitCloud/lib/libHAL_MegaRf_Atmega256rfr2_8Mhz_Gcc.a(halAdc.o)
 .text          0x00000000        0x0 ../../../../BitCloud/lib/libHAL_MegaRf_Atmega256rfr2_8Mhz_Gcc.a(halSpi.o)
 .data          0x00000000        0x0 ../../../../BitCloud/lib/libHAL_MegaRf_Atmega256rfr2_8Mhz_Gcc.a(halSpi.o)
 .text.halSetUsartSpiConfig
                0x00000000       0x98 ../../../../BitCloud/lib/libHAL_MegaRf_Atmega256rfr2_8Mhz_Gcc.a(halSpi.o)
 .text.halClearUsartSpi
                0x00000000       0x16 ../../../../BitCloud/lib/libHAL_MegaRf_Atmega256rfr2_8Mhz_Gcc.a(halSpi.o)
 .text.halSetSlaveSpiConfig
                0x00000000       0x5c ../../../../BitCloud/lib/libHAL_MegaRf_Atmega256rfr2_8Mhz_Gcc.a(halSpi.o)
 .text.halSyncUsartSpiWriteData
                0x00000000       0x36 ../../../../BitCloud/lib/libHAL_MegaRf_Atmega256rfr2_8Mhz_Gcc.a(halSpi.o)
 .text.halSyncUsartSpiReadData
                0x00000000       0x38 ../../../../BitCloud/lib/libHAL_MegaRf_Atmega256rfr2_8Mhz_Gcc.a(halSpi.o)
 .text          0x00000000        0x0 ../../../../BitCloud/lib/libHAL_MegaRf_Atmega256rfr2_8Mhz_Gcc.a(sleepTimer.o)
 .data          0x00000000        0x0 ../../../../BitCloud/lib/libHAL_MegaRf_Atmega256rfr2_8Mhz_Gcc.a(sleepTimer.o)
 .bss           0x00000000        0x0 ../../../../BitCloud/lib/libHAL_MegaRf_Atmega256rfr2_8Mhz_Gcc.a(sleepTimer.o)
 .text.HAL_StopSleepTimer
                0x00000000       0x22 ../../../../BitCloud/lib/libHAL_MegaRf_Atmega256rfr2_8Mhz_Gcc.a(sleepTimer.o)
 .text          0x00000000        0x0 ../../../../BitCloud/lib/WdtInitatmega256rfr2_Gcc.o
 .data          0x00000000        0x0 ../../../../BitCloud/lib/WdtInitatmega256rfr2_Gcc.o
 .bss           0x00000000        0x0 ../../../../BitCloud/lib/WdtInitatmega256rfr2_Gcc.o
 .text          0x00000000        0x0 ../../../../BitCloud/lib/libBc_All_Atmega256rfr2_Atmega256rfr2_Gcc.a(phyRtimerIrqDispatcher.o)
 .data          0x00000000        0x0 ../../../../BitCloud/lib/libBc_All_Atmega256rfr2_Atmega256rfr2_Gcc.a(phyRtimerIrqDispatcher.o)
 .bss           0x00000000        0x0 ../../../../BitCloud/lib/libBc_All_Atmega256rfr2_Atmega256rfr2_Gcc.a(phyRtimerIrqDispatcher.o)
 .text          0x00000000        0x0 c:/program files (x86)/atmel/atmel toolchain/avr8 gcc/native/3.4.1061/avr8-gnu-toolchain/bin/../lib/gcc/avr/4.8.1/avr6\libgcc.a(_mulsi3.o)
 .data          0x00000000        0x0 c:/program files (x86)/atmel/atmel toolchain/avr8 gcc/native/3.4.1061/avr8-gnu-toolchain/bin/../lib/gcc/avr/4.8.1/avr6\libgcc.a(_mulsi3.o)
 .bss           0x00000000        0x0 c:/program files (x86)/atmel/atmel toolchain/avr8 gcc/native/3.4.1061/avr8-gnu-toolchain/bin/../lib/gcc/avr/4.8.1/avr6\libgcc.a(_mulsi3.o)
 .text.libgcc.div
                0x00000000        0x0 c:/program files (x86)/atmel/atmel toolchain/avr8 gcc/native/3.4.1061/avr8-gnu-toolchain/bin/../lib/gcc/avr/4.8.1/avr6\libgcc.a(_mulsi3.o)
 .text.libgcc   0x00000000        0x0 c:/program files (x86)/atmel/atmel toolchain/avr8 gcc/native/3.4.1061/avr8-gnu-toolchain/bin/../lib/gcc/avr/4.8.1/avr6\libgcc.a(_mulsi3.o)
 .text.libgcc.prologue
                0x00000000        0x0 c:/program files (x86)/atmel/atmel toolchain/avr8 gcc/native/3.4.1061/avr8-gnu-toolchain/bin/../lib/gcc/avr/4.8.1/avr6\libgcc.a(_mulsi3.o)
 .text.libgcc.builtins
                0x00000000        0x0 c:/program files (x86)/atmel/atmel toolchain/avr8 gcc/native/3.4.1061/avr8-gnu-toolchain/bin/../lib/gcc/avr/4.8.1/avr6\libgcc.a(_mulsi3.o)
 .text.libgcc.fmul
                0x00000000        0x0 c:/program files (x86)/atmel/atmel toolchain/avr8 gcc/native/3.4.1061/avr8-gnu-toolchain/bin/../lib/gcc/avr/4.8.1/avr6\libgcc.a(_mulsi3.o)
 .text.libgcc.fixed
                0x00000000        0x0 c:/program files (x86)/atmel/atmel toolchain/avr8 gcc/native/3.4.1061/avr8-gnu-toolchain/bin/../lib/gcc/avr/4.8.1/avr6\libgcc.a(_mulsi3.o)
 .text          0x00000000        0x0 c:/program files (x86)/atmel/atmel toolchain/avr8 gcc/native/3.4.1061/avr8-gnu-toolchain/bin/../lib/gcc/avr/4.8.1/avr6\libgcc.a(_udivmodqi4.o)
 .data          0x00000000        0x0 c:/program files (x86)/atmel/atmel toolchain/avr8 gcc/native/3.4.1061/avr8-gnu-toolchain/bin/../lib/gcc/avr/4.8.1/avr6\libgcc.a(_udivmodqi4.o)
 .bss           0x00000000        0x0 c:/program files (x86)/atmel/atmel toolchain/avr8 gcc/native/3.4.1061/avr8-gnu-toolchain/bin/../lib/gcc/avr/4.8.1/avr6\libgcc.a(_udivmodqi4.o)
 .text.libgcc.mul
                0x00000000        0x0 c:/program files (x86)/atmel/atmel toolchain/avr8 gcc/native/3.4.1061/avr8-gnu-toolchain/bin/../lib/gcc/avr/4.8.1/avr6\libgcc.a(_udivmodqi4.o)
 .text.libgcc   0x00000000        0x0 c:/program files (x86)/atmel/atmel toolchain/avr8 gcc/native/3.4.1061/avr8-gnu-toolchain/bin/../lib/gcc/avr/4.8.1/avr6\libgcc.a(_udivmodqi4.o)
 .text.libgcc.prologue
                0x00000000        0x0 c:/program files (x86)/atmel/atmel toolchain/avr8 gcc/native/3.4.1061/avr8-gnu-toolchain/bin/../lib/gcc/avr/4.8.1/avr6\libgcc.a(_udivmodqi4.o)
 .text.libgcc.builtins
                0x00000000        0x0 c:/program files (x86)/atmel/atmel toolchain/avr8 gcc/native/3.4.1061/avr8-gnu-toolchain/bin/../lib/gcc/avr/4.8.1/avr6\libgcc.a(_udivmodqi4.o)
 .text.libgcc.fmul
                0x00000000        0x0 c:/program files (x86)/atmel/atmel toolchain/avr8 gcc/native/3.4.1061/avr8-gnu-toolchain/bin/../lib/gcc/avr/4.8.1/avr6\libgcc.a(_udivmodqi4.o)
 .text.libgcc.fixed
                0x00000000        0x0 c:/program files (x86)/atmel/atmel toolchain/avr8 gcc/native/3.4.1061/avr8-gnu-toolchain/bin/../lib/gcc/avr/4.8.1/avr6\libgcc.a(_udivmodqi4.o)
 .text          0x00000000        0x0 c:/program files (x86)/atmel/atmel toolchain/avr8 gcc/native/3.4.1061/avr8-gnu-toolchain/bin/../lib/gcc/avr/4.8.1/avr6\libgcc.a(_udivmodhi4.o)
 .data          0x00000000        0x0 c:/program files (x86)/atmel/atmel toolchain/avr8 gcc/native/3.4.1061/avr8-gnu-toolchain/bin/../lib/gcc/avr/4.8.1/avr6\libgcc.a(_udivmodhi4.o)
 .bss           0x00000000        0x0 c:/program files (x86)/atmel/atmel toolchain/avr8 gcc/native/3.4.1061/avr8-gnu-toolchain/bin/../lib/gcc/avr/4.8.1/avr6\libgcc.a(_udivmodhi4.o)
 .text.libgcc.mul
                0x00000000        0x0 c:/program files (x86)/atmel/atmel toolchain/avr8 gcc/native/3.4.1061/avr8-gnu-toolchain/bin/../lib/gcc/avr/4.8.1/avr6\libgcc.a(_udivmodhi4.o)
 .text.libgcc   0x00000000        0x0 c:/program files (x86)/atmel/atmel toolchain/avr8 gcc/native/3.4.1061/avr8-gnu-toolchain/bin/../lib/gcc/avr/4.8.1/avr6\libgcc.a(_udivmodhi4.o)
 .text.libgcc.prologue
                0x00000000        0x0 c:/program files (x86)/atmel/atmel toolchain/avr8 gcc/native/3.4.1061/avr8-gnu-toolchain/bin/../lib/gcc/avr/4.8.1/avr6\libgcc.a(_udivmodhi4.o)
 .text.libgcc.builtins
                0x00000000        0x0 c:/program files (x86)/atmel/atmel toolchain/avr8 gcc/native/3.4.1061/avr8-gnu-toolchain/bin/../lib/gcc/avr/4.8.1/avr6\libgcc.a(_udivmodhi4.o)
 .text.libgcc.fmul
                0x00000000        0x0 c:/program files (x86)/atmel/atmel toolchain/avr8 gcc/native/3.4.1061/avr8-gnu-toolchain/bin/../lib/gcc/avr/4.8.1/avr6\libgcc.a(_udivmodhi4.o)
 .text.libgcc.fixed
                0x00000000        0x0 c:/program files (x86)/atmel/atmel toolchain/avr8 gcc/native/3.4.1061/avr8-gnu-toolchain/bin/../lib/gcc/avr/4.8.1/avr6\libgcc.a(_udivmodhi4.o)
 .text          0x00000000        0x0 c:/program files (x86)/atmel/atmel toolchain/avr8 gcc/native/3.4.1061/avr8-gnu-toolchain/bin/../lib/gcc/avr/4.8.1/avr6\libgcc.a(_divmodhi4.o)
 .data          0x00000000        0x0 c:/program files (x86)/atmel/atmel toolchain/avr8 gcc/native/3.4.1061/avr8-gnu-toolchain/bin/../lib/gcc/avr/4.8.1/avr6\libgcc.a(_divmodhi4.o)
 .bss           0x00000000        0x0 c:/program files (x86)/atmel/atmel toolchain/avr8 gcc/native/3.4.1061/avr8-gnu-toolchain/bin/../lib/gcc/avr/4.8.1/avr6\libgcc.a(_divmodhi4.o)
 .text.libgcc.mul
                0x00000000        0x0 c:/program files (x86)/atmel/atmel toolchain/avr8 gcc/native/3.4.1061/avr8-gnu-toolchain/bin/../lib/gcc/avr/4.8.1/avr6\libgcc.a(_divmodhi4.o)
 .text.libgcc   0x00000000        0x0 c:/program files (x86)/atmel/atmel toolchain/avr8 gcc/native/3.4.1061/avr8-gnu-toolchain/bin/../lib/gcc/avr/4.8.1/avr6\libgcc.a(_divmodhi4.o)
 .text.libgcc.prologue
                0x00000000        0x0 c:/program files (x86)/atmel/atmel toolchain/avr8 gcc/native/3.4.1061/avr8-gnu-toolchain/bin/../lib/gcc/avr/4.8.1/avr6\libgcc.a(_divmodhi4.o)
 .text.libgcc.builtins
                0x00000000        0x0 c:/program files (x86)/atmel/atmel toolchain/avr8 gcc/native/3.4.1061/avr8-gnu-toolchain/bin/../lib/gcc/avr/4.8.1/avr6\libgcc.a(_divmodhi4.o)
 .text.libgcc.fmul
                0x00000000        0x0 c:/program files (x86)/atmel/atmel toolchain/avr8 gcc/native/3.4.1061/avr8-gnu-toolchain/bin/../lib/gcc/avr/4.8.1/avr6\libgcc.a(_divmodhi4.o)
 .text.libgcc.fixed
                0x00000000        0x0 c:/program files (x86)/atmel/atmel toolchain/avr8 gcc/native/3.4.1061/avr8-gnu-toolchain/bin/../lib/gcc/avr/4.8.1/avr6\libgcc.a(_divmodhi4.o)
 .text          0x00000000        0x0 c:/program files (x86)/atmel/atmel toolchain/avr8 gcc/native/3.4.1061/avr8-gnu-toolchain/bin/../lib/gcc/avr/4.8.1/avr6\libgcc.a(_udivmodsi4.o)
 .data          0x00000000        0x0 c:/program files (x86)/atmel/atmel toolchain/avr8 gcc/native/3.4.1061/avr8-gnu-toolchain/bin/../lib/gcc/avr/4.8.1/avr6\libgcc.a(_udivmodsi4.o)
 .bss           0x00000000        0x0 c:/program files (x86)/atmel/atmel toolchain/avr8 gcc/native/3.4.1061/avr8-gnu-toolchain/bin/../lib/gcc/avr/4.8.1/avr6\libgcc.a(_udivmodsi4.o)
 .text.libgcc.mul
                0x00000000        0x0 c:/program files (x86)/atmel/atmel toolchain/avr8 gcc/native/3.4.1061/avr8-gnu-toolchain/bin/../lib/gcc/avr/4.8.1/avr6\libgcc.a(_udivmodsi4.o)
 .text.libgcc   0x00000000        0x0 c:/program files (x86)/atmel/atmel toolchain/avr8 gcc/native/3.4.1061/avr8-gnu-toolchain/bin/../lib/gcc/avr/4.8.1/avr6\libgcc.a(_udivmodsi4.o)
 .text.libgcc.prologue
                0x00000000        0x0 c:/program files (x86)/atmel/atmel toolchain/avr8 gcc/native/3.4.1061/avr8-gnu-toolchain/bin/../lib/gcc/avr/4.8.1/avr6\libgcc.a(_udivmodsi4.o)
 .text.libgcc.builtins
                0x00000000        0x0 c:/program files (x86)/atmel/atmel toolchain/avr8 gcc/native/3.4.1061/avr8-gnu-toolchain/bin/../lib/gcc/avr/4.8.1/avr6\libgcc.a(_udivmodsi4.o)
 .text.libgcc.fmul
                0x00000000        0x0 c:/program files (x86)/atmel/atmel toolchain/avr8 gcc/native/3.4.1061/avr8-gnu-toolchain/bin/../lib/gcc/avr/4.8.1/avr6\libgcc.a(_udivmodsi4.o)
 .text.libgcc.fixed
                0x00000000        0x0 c:/program files (x86)/atmel/atmel toolchain/avr8 gcc/native/3.4.1061/avr8-gnu-toolchain/bin/../lib/gcc/avr/4.8.1/avr6\libgcc.a(_udivmodsi4.o)
 .text          0x00000000        0x0 c:/program files (x86)/atmel/atmel toolchain/avr8 gcc/native/3.4.1061/avr8-gnu-toolchain/bin/../lib/gcc/avr/4.8.1/avr6\libgcc.a(_divmodsi4.o)
 .data          0x00000000        0x0 c:/program files (x86)/atmel/atmel toolchain/avr8 gcc/native/3.4.1061/avr8-gnu-toolchain/bin/../lib/gcc/avr/4.8.1/avr6\libgcc.a(_divmodsi4.o)
 .bss           0x00000000        0x0 c:/program files (x86)/atmel/atmel toolchain/avr8 gcc/native/3.4.1061/avr8-gnu-toolchain/bin/../lib/gcc/avr/4.8.1/avr6\libgcc.a(_divmodsi4.o)
 .text.libgcc.mul
                0x00000000        0x0 c:/program files (x86)/atmel/atmel toolchain/avr8 gcc/native/3.4.1061/avr8-gnu-toolchain/bin/../lib/gcc/avr/4.8.1/avr6\libgcc.a(_divmodsi4.o)
 .text.libgcc   0x00000000        0x0 c:/program files (x86)/atmel/atmel toolchain/avr8 gcc/native/3.4.1061/avr8-gnu-toolchain/bin/../lib/gcc/avr/4.8.1/avr6\libgcc.a(_divmodsi4.o)
 .text.libgcc.prologue
                0x00000000        0x0 c:/program files (x86)/atmel/atmel toolchain/avr8 gcc/native/3.4.1061/avr8-gnu-toolchain/bin/../lib/gcc/avr/4.8.1/avr6\libgcc.a(_divmodsi4.o)
 .text.libgcc.builtins
                0x00000000        0x0 c:/program files (x86)/atmel/atmel toolchain/avr8 gcc/native/3.4.1061/avr8-gnu-toolchain/bin/../lib/gcc/avr/4.8.1/avr6\libgcc.a(_divmodsi4.o)
 .text.libgcc.fmul
                0x00000000        0x0 c:/program files (x86)/atmel/atmel toolchain/avr8 gcc/native/3.4.1061/avr8-gnu-toolchain/bin/../lib/gcc/avr/4.8.1/avr6\libgcc.a(_divmodsi4.o)
 .text.libgcc.fixed
                0x00000000        0x0 c:/program files (x86)/atmel/atmel toolchain/avr8 gcc/native/3.4.1061/avr8-gnu-toolchain/bin/../lib/gcc/avr/4.8.1/avr6\libgcc.a(_divmodsi4.o)
 .text          0x00000000        0x0 c:/program files (x86)/atmel/atmel toolchain/avr8 gcc/native/3.4.1061/avr8-gnu-toolchain/bin/../lib/gcc/avr/4.8.1/avr6\libgcc.a(_negsi2.o)
 .data          0x00000000        0x0 c:/program files (x86)/atmel/atmel toolchain/avr8 gcc/native/3.4.1061/avr8-gnu-toolchain/bin/../lib/gcc/avr/4.8.1/avr6\libgcc.a(_negsi2.o)
 .bss           0x00000000        0x0 c:/program files (x86)/atmel/atmel toolchain/avr8 gcc/native/3.4.1061/avr8-gnu-toolchain/bin/../lib/gcc/avr/4.8.1/avr6\libgcc.a(_negsi2.o)
 .text.libgcc.mul
                0x00000000        0x0 c:/program files (x86)/atmel/atmel toolchain/avr8 gcc/native/3.4.1061/avr8-gnu-toolchain/bin/../lib/gcc/avr/4.8.1/avr6\libgcc.a(_negsi2.o)
 .text.libgcc   0x00000000        0x0 c:/program files (x86)/atmel/atmel toolchain/avr8 gcc/native/3.4.1061/avr8-gnu-toolchain/bin/../lib/gcc/avr/4.8.1/avr6\libgcc.a(_negsi2.o)
 .text.libgcc.prologue
                0x00000000        0x0 c:/program files (x86)/atmel/atmel toolchain/avr8 gcc/native/3.4.1061/avr8-gnu-toolchain/bin/../lib/gcc/avr/4.8.1/avr6\libgcc.a(_negsi2.o)
 .text.libgcc.builtins
                0x00000000        0x0 c:/program files (x86)/atmel/atmel toolchain/avr8 gcc/native/3.4.1061/avr8-gnu-toolchain/bin/../lib/gcc/avr/4.8.1/avr6\libgcc.a(_negsi2.o)
 .text.libgcc.fmul
                0x00000000        0x0 c:/program files (x86)/atmel/atmel toolchain/avr8 gcc/native/3.4.1061/avr8-gnu-toolchain/bin/../lib/gcc/avr/4.8.1/avr6\libgcc.a(_negsi2.o)
 .text.libgcc.fixed
                0x00000000        0x0 c:/program files (x86)/atmel/atmel toolchain/avr8 gcc/native/3.4.1061/avr8-gnu-toolchain/bin/../lib/gcc/avr/4.8.1/avr6\libgcc.a(_negsi2.o)
 .text          0x00000000        0x0 c:/program files (x86)/atmel/atmel toolchain/avr8 gcc/native/3.4.1061/avr8-gnu-toolchain/bin/../lib/gcc/avr/4.8.1/avr6\libgcc.a(_exit.o)
 .data          0x00000000        0x0 c:/program files (x86)/atmel/atmel toolchain/avr8 gcc/native/3.4.1061/avr8-gnu-toolchain/bin/../lib/gcc/avr/4.8.1/avr6\libgcc.a(_exit.o)
 .bss           0x00000000        0x0 c:/program files (x86)/atmel/atmel toolchain/avr8 gcc/native/3.4.1061/avr8-gnu-toolchain/bin/../lib/gcc/avr/4.8.1/avr6\libgcc.a(_exit.o)
 .text.libgcc.mul
                0x00000000        0x0 c:/program files (x86)/atmel/atmel toolchain/avr8 gcc/native/3.4.1061/avr8-gnu-toolchain/bin/../lib/gcc/avr/4.8.1/avr6\libgcc.a(_exit.o)
 .text.libgcc.div
                0x00000000        0x0 c:/program files (x86)/atmel/atmel toolchain/avr8 gcc/native/3.4.1061/avr8-gnu-toolchain/bin/../lib/gcc/avr/4.8.1/avr6\libgcc.a(_exit.o)
 .text.libgcc   0x00000000        0x0 c:/program files (x86)/atmel/atmel toolchain/avr8 gcc/native/3.4.1061/avr8-gnu-toolchain/bin/../lib/gcc/avr/4.8.1/avr6\libgcc.a(_exit.o)
 .text.libgcc.prologue
                0x00000000        0x0 c:/program files (x86)/atmel/atmel toolchain/avr8 gcc/native/3.4.1061/avr8-gnu-toolchain/bin/../lib/gcc/avr/4.8.1/avr6\libgcc.a(_exit.o)
 .fini9         0x00000000        0x0 c:/program files (x86)/atmel/atmel toolchain/avr8 gcc/native/3.4.1061/avr8-gnu-toolchain/bin/../lib/gcc/avr/4.8.1/avr6\libgcc.a(_exit.o)
 .fini0         0x00000000        0x4 c:/program files (x86)/atmel/atmel toolchain/avr8 gcc/native/3.4.1061/avr8-gnu-toolchain/bin/../lib/gcc/avr/4.8.1/avr6\libgcc.a(_exit.o)
 .text.libgcc.builtins
                0x00000000        0x0 c:/program files (x86)/atmel/atmel toolchain/avr8 gcc/native/3.4.1061/avr8-gnu-toolchain/bin/../lib/gcc/avr/4.8.1/avr6\libgcc.a(_exit.o)
 .text.libgcc.fmul
                0x00000000        0x0 c:/program files (x86)/atmel/atmel toolchain/avr8 gcc/native/3.4.1061/avr8-gnu-toolchain/bin/../lib/gcc/avr/4.8.1/avr6\libgcc.a(_exit.o)
 .text.libgcc.fixed
                0x00000000        0x0 c:/program files (x86)/atmel/atmel toolchain/avr8 gcc/native/3.4.1061/avr8-gnu-toolchain/bin/../lib/gcc/avr/4.8.1/avr6\libgcc.a(_exit.o)
 .text          0x00000000        0x0 c:/program files (x86)/atmel/atmel toolchain/avr8 gcc/native/3.4.1061/avr8-gnu-toolchain/bin/../lib/gcc/avr/4.8.1/avr6\libgcc.a(_tablejump.o)
 .data          0x00000000        0x0 c:/program files (x86)/atmel/atmel toolchain/avr8 gcc/native/3.4.1061/avr8-gnu-toolchain/bin/../lib/gcc/avr/4.8.1/avr6\libgcc.a(_tablejump.o)
 .bss           0x00000000        0x0 c:/program files (x86)/atmel/atmel toolchain/avr8 gcc/native/3.4.1061/avr8-gnu-toolchain/bin/../lib/gcc/avr/4.8.1/avr6\libgcc.a(_tablejump.o)
 .text.libgcc.mul
                0x00000000        0x0 c:/program files (x86)/atmel/atmel toolchain/avr8 gcc/native/3.4.1061/avr8-gnu-toolchain/bin/../lib/gcc/avr/4.8.1/avr6\libgcc.a(_tablejump.o)
 .text.libgcc.div
                0x00000000        0x0 c:/program files (x86)/atmel/atmel toolchain/avr8 gcc/native/3.4.1061/avr8-gnu-toolchain/bin/../lib/gcc/avr/4.8.1/avr6\libgcc.a(_tablejump.o)
 .text.libgcc.prologue
                0x00000000        0x0 c:/program files (x86)/atmel/atmel toolchain/avr8 gcc/native/3.4.1061/avr8-gnu-toolchain/bin/../lib/gcc/avr/4.8.1/avr6\libgcc.a(_tablejump.o)
 .text.libgcc.builtins
                0x00000000        0x0 c:/program files (x86)/atmel/atmel toolchain/avr8 gcc/native/3.4.1061/avr8-gnu-toolchain/bin/../lib/gcc/avr/4.8.1/avr6\libgcc.a(_tablejump.o)
 .text.libgcc.fmul
                0x00000000        0x0 c:/program files (x86)/atmel/atmel toolchain/avr8 gcc/native/3.4.1061/avr8-gnu-toolchain/bin/../lib/gcc/avr/4.8.1/avr6\libgcc.a(_tablejump.o)
 .text.libgcc.fixed
                0x00000000        0x0 c:/program files (x86)/atmel/atmel toolchain/avr8 gcc/native/3.4.1061/avr8-gnu-toolchain/bin/../lib/gcc/avr/4.8.1/avr6\libgcc.a(_tablejump.o)
 .text          0x00000000        0x0 c:/program files (x86)/atmel/atmel toolchain/avr8 gcc/native/3.4.1061/avr8-gnu-toolchain/bin/../lib/gcc/avr/4.8.1/avr6\libgcc.a(_copy_data.o)
 .data          0x00000000        0x0 c:/program files (x86)/atmel/atmel toolchain/avr8 gcc/native/3.4.1061/avr8-gnu-toolchain/bin/../lib/gcc/avr/4.8.1/avr6\libgcc.a(_copy_data.o)
 .bss           0x00000000        0x0 c:/program files (x86)/atmel/atmel toolchain/avr8 gcc/native/3.4.1061/avr8-gnu-toolchain/bin/../lib/gcc/avr/4.8.1/avr6\libgcc.a(_copy_data.o)
 .text.libgcc.mul
                0x00000000        0x0 c:/program files (x86)/atmel/atmel toolchain/avr8 gcc/native/3.4.1061/avr8-gnu-toolchain/bin/../lib/gcc/avr/4.8.1/avr6\libgcc.a(_copy_data.o)
 .text.libgcc.div
                0x00000000        0x0 c:/program files (x86)/atmel/atmel toolchain/avr8 gcc/native/3.4.1061/avr8-gnu-toolchain/bin/../lib/gcc/avr/4.8.1/avr6\libgcc.a(_copy_data.o)
 .text.libgcc   0x00000000        0x0 c:/program files (x86)/atmel/atmel toolchain/avr8 gcc/native/3.4.1061/avr8-gnu-toolchain/bin/../lib/gcc/avr/4.8.1/avr6\libgcc.a(_copy_data.o)
 .text.libgcc.prologue
                0x00000000        0x0 c:/program files (x86)/atmel/atmel toolchain/avr8 gcc/native/3.4.1061/avr8-gnu-toolchain/bin/../lib/gcc/avr/4.8.1/avr6\libgcc.a(_copy_data.o)
 .text.libgcc.builtins
                0x00000000        0x0 c:/program files (x86)/atmel/atmel toolchain/avr8 gcc/native/3.4.1061/avr8-gnu-toolchain/bin/../lib/gcc/avr/4.8.1/avr6\libgcc.a(_copy_data.o)
 .text.libgcc.fmul
                0x00000000        0x0 c:/program files (x86)/atmel/atmel toolchain/avr8 gcc/native/3.4.1061/avr8-gnu-toolchain/bin/../lib/gcc/avr/4.8.1/avr6\libgcc.a(_copy_data.o)
 .text.libgcc.fixed
                0x00000000        0x0 c:/program files (x86)/atmel/atmel toolchain/avr8 gcc/native/3.4.1061/avr8-gnu-toolchain/bin/../lib/gcc/avr/4.8.1/avr6\libgcc.a(_copy_data.o)
 .text          0x00000000        0x0 c:/program files (x86)/atmel/atmel toolchain/avr8 gcc/native/3.4.1061/avr8-gnu-toolchain/bin/../lib/gcc/avr/4.8.1/avr6\libgcc.a(_clear_bss.o)
 .data          0x00000000        0x0 c:/program files (x86)/atmel/atmel toolchain/avr8 gcc/native/3.4.1061/avr8-gnu-toolchain/bin/../lib/gcc/avr/4.8.1/avr6\libgcc.a(_clear_bss.o)
 .bss           0x00000000        0x0 c:/program files (x86)/atmel/atmel toolchain/avr8 gcc/native/3.4.1061/avr8-gnu-toolchain/bin/../lib/gcc/avr/4.8.1/avr6\libgcc.a(_clear_bss.o)
 .text.libgcc.mul
                0x00000000        0x0 c:/program files (x86)/atmel/atmel toolchain/avr8 gcc/native/3.4.1061/avr8-gnu-toolchain/bin/../lib/gcc/avr/4.8.1/avr6\libgcc.a(_clear_bss.o)
 .text.libgcc.div
                0x00000000        0x0 c:/program files (x86)/atmel/atmel toolchain/avr8 gcc/native/3.4.1061/avr8-gnu-toolchain/bin/../lib/gcc/avr/4.8.1/avr6\libgcc.a(_clear_bss.o)
 .text.libgcc   0x00000000        0x0 c:/program files (x86)/atmel/atmel toolchain/avr8 gcc/native/3.4.1061/avr8-gnu-toolchain/bin/../lib/gcc/avr/4.8.1/avr6\libgcc.a(_clear_bss.o)
 .text.libgcc.prologue
                0x00000000        0x0 c:/program files (x86)/atmel/atmel toolchain/avr8 gcc/native/3.4.1061/avr8-gnu-toolchain/bin/../lib/gcc/avr/4.8.1/avr6\libgcc.a(_clear_bss.o)
 .text.libgcc.builtins
                0x00000000        0x0 c:/program files (x86)/atmel/atmel toolchain/avr8 gcc/native/3.4.1061/avr8-gnu-toolchain/bin/../lib/gcc/avr/4.8.1/avr6\libgcc.a(_clear_bss.o)
 .text.libgcc.fmul
                0x00000000        0x0 c:/program files (x86)/atmel/atmel toolchain/avr8 gcc/native/3.4.1061/avr8-gnu-toolchain/bin/../lib/gcc/avr/4.8.1/avr6\libgcc.a(_clear_bss.o)
 .text.libgcc.fixed
                0x00000000        0x0 c:/program files (x86)/atmel/atmel toolchain/avr8 gcc/native/3.4.1061/avr8-gnu-toolchain/bin/../lib/gcc/avr/4.8.1/avr6\libgcc.a(_clear_bss.o)
 .text          0x00000000        0x0 c:/program files (x86)/atmel/atmel toolchain/avr8 gcc/native/3.4.1061/avr8-gnu-toolchain/bin/../lib/gcc/avr/4.8.1/avr6\libgcc.a(_umulhisi3.o)
 .data          0x00000000        0x0 c:/program files (x86)/atmel/atmel toolchain/avr8 gcc/native/3.4.1061/avr8-gnu-toolchain/bin/../lib/gcc/avr/4.8.1/avr6\libgcc.a(_umulhisi3.o)
 .bss           0x00000000        0x0 c:/program files (x86)/atmel/atmel toolchain/avr8 gcc/native/3.4.1061/avr8-gnu-toolchain/bin/../lib/gcc/avr/4.8.1/avr6\libgcc.a(_umulhisi3.o)
 .text.libgcc.div
                0x00000000        0x0 c:/program files (x86)/atmel/atmel toolchain/avr8 gcc/native/3.4.1061/avr8-gnu-toolchain/bin/../lib/gcc/avr/4.8.1/avr6\libgcc.a(_umulhisi3.o)
 .text.libgcc   0x00000000        0x0 c:/program files (x86)/atmel/atmel toolchain/avr8 gcc/native/3.4.1061/avr8-gnu-toolchain/bin/../lib/gcc/avr/4.8.1/avr6\libgcc.a(_umulhisi3.o)
 .text.libgcc.prologue
                0x00000000        0x0 c:/program files (x86)/atmel/atmel toolchain/avr8 gcc/native/3.4.1061/avr8-gnu-toolchain/bin/../lib/gcc/avr/4.8.1/avr6\libgcc.a(_umulhisi3.o)
 .text.libgcc.builtins
                0x00000000        0x0 c:/program files (x86)/atmel/atmel toolchain/avr8 gcc/native/3.4.1061/avr8-gnu-toolchain/bin/../lib/gcc/avr/4.8.1/avr6\libgcc.a(_umulhisi3.o)
 .text.libgcc.fmul
                0x00000000        0x0 c:/program files (x86)/atmel/atmel toolchain/avr8 gcc/native/3.4.1061/avr8-gnu-toolchain/bin/../lib/gcc/avr/4.8.1/avr6\libgcc.a(_umulhisi3.o)
 .text.libgcc.fixed
                0x00000000        0x0 c:/program files (x86)/atmel/atmel toolchain/avr8 gcc/native/3.4.1061/avr8-gnu-toolchain/bin/../lib/gcc/avr/4.8.1/avr6\libgcc.a(_umulhisi3.o)
 .text          0x00000000        0x0 c:/program files (x86)/atmel/atmel toolchain/avr8 gcc/native/3.4.1061/avr8-gnu-toolchain/bin/../lib/gcc/avr/4.8.1/avr6\libgcc.a(_usmulhisi3.o)
 .data          0x00000000        0x0 c:/program files (x86)/atmel/atmel toolchain/avr8 gcc/native/3.4.1061/avr8-gnu-toolchain/bin/../lib/gcc/avr/4.8.1/avr6\libgcc.a(_usmulhisi3.o)
 .bss           0x00000000        0x0 c:/program files (x86)/atmel/atmel toolchain/avr8 gcc/native/3.4.1061/avr8-gnu-toolchain/bin/../lib/gcc/avr/4.8.1/avr6\libgcc.a(_usmulhisi3.o)
 .text.libgcc.div
                0x00000000        0x0 c:/program files (x86)/atmel/atmel toolchain/avr8 gcc/native/3.4.1061/avr8-gnu-toolchain/bin/../lib/gcc/avr/4.8.1/avr6\libgcc.a(_usmulhisi3.o)
 .text.libgcc   0x00000000        0x0 c:/program files (x86)/atmel/atmel toolchain/avr8 gcc/native/3.4.1061/avr8-gnu-toolchain/bin/../lib/gcc/avr/4.8.1/avr6\libgcc.a(_usmulhisi3.o)
 .text.libgcc.prologue
                0x00000000        0x0 c:/program files (x86)/atmel/atmel toolchain/avr8 gcc/native/3.4.1061/avr8-gnu-toolchain/bin/../lib/gcc/avr/4.8.1/avr6\libgcc.a(_usmulhisi3.o)
 .text.libgcc.builtins
                0x00000000        0x0 c:/program files (x86)/atmel/atmel toolchain/avr8 gcc/native/3.4.1061/avr8-gnu-toolchain/bin/../lib/gcc/avr/4.8.1/avr6\libgcc.a(_usmulhisi3.o)
 .text.libgcc.fmul
                0x00000000        0x0 c:/program files (x86)/atmel/atmel toolchain/avr8 gcc/native/3.4.1061/avr8-gnu-toolchain/bin/../lib/gcc/avr/4.8.1/avr6\libgcc.a(_usmulhisi3.o)
 .text.libgcc.fixed
                0x00000000        0x0 c:/program files (x86)/atmel/atmel toolchain/avr8 gcc/native/3.4.1061/avr8-gnu-toolchain/bin/../lib/gcc/avr/4.8.1/avr6\libgcc.a(_usmulhisi3.o)
 .text          0x00000000        0x0 c:/program files (x86)/atmel/atmel toolchain/avr8 gcc/native/3.4.1061/avr8-gnu-toolchain/bin/../lib/gcc/avr/4.8.1/avr6\libgcc.a(_muluhisi3.o)
 .data          0x00000000        0x0 c:/program files (x86)/atmel/atmel toolchain/avr8 gcc/native/3.4.1061/avr8-gnu-toolchain/bin/../lib/gcc/avr/4.8.1/avr6\libgcc.a(_muluhisi3.o)
 .bss           0x00000000        0x0 c:/program files (x86)/atmel/atmel toolchain/avr8 gcc/native/3.4.1061/avr8-gnu-toolchain/bin/../lib/gcc/avr/4.8.1/avr6\libgcc.a(_muluhisi3.o)
 .text.libgcc.div
                0x00000000        0x0 c:/program files (x86)/atmel/atmel toolchain/avr8 gcc/native/3.4.1061/avr8-gnu-toolchain/bin/../lib/gcc/avr/4.8.1/avr6\libgcc.a(_muluhisi3.o)
 .text.libgcc   0x00000000        0x0 c:/program files (x86)/atmel/atmel toolchain/avr8 gcc/native/3.4.1061/avr8-gnu-toolchain/bin/../lib/gcc/avr/4.8.1/avr6\libgcc.a(_muluhisi3.o)
 .text.libgcc.prologue
                0x00000000        0x0 c:/program files (x86)/atmel/atmel toolchain/avr8 gcc/native/3.4.1061/avr8-gnu-toolchain/bin/../lib/gcc/avr/4.8.1/avr6\libgcc.a(_muluhisi3.o)
 .text.libgcc.builtins
                0x00000000        0x0 c:/program files (x86)/atmel/atmel toolchain/avr8 gcc/native/3.4.1061/avr8-gnu-toolchain/bin/../lib/gcc/avr/4.8.1/avr6\libgcc.a(_muluhisi3.o)
 .text.libgcc.fmul
                0x00000000        0x0 c:/program files (x86)/atmel/atmel toolchain/avr8 gcc/native/3.4.1061/avr8-gnu-toolchain/bin/../lib/gcc/avr/4.8.1/avr6\libgcc.a(_muluhisi3.o)
 .text.libgcc.fixed
                0x00000000        0x0 c:/program files (x86)/atmel/atmel toolchain/avr8 gcc/native/3.4.1061/avr8-gnu-toolchain/bin/../lib/gcc/avr/4.8.1/avr6\libgcc.a(_muluhisi3.o)
 .text          0x00000000        0x0 c:/program files (x86)/atmel/atmel toolchain/avr8 gcc/native/3.4.1061/avr8-gnu-toolchain/bin/../lib/gcc/avr/4.8.1/avr6\libgcc.a(_mulshisi3.o)
 .data          0x00000000        0x0 c:/program files (x86)/atmel/atmel toolchain/avr8 gcc/native/3.4.1061/avr8-gnu-toolchain/bin/../lib/gcc/avr/4.8.1/avr6\libgcc.a(_mulshisi3.o)
 .bss           0x00000000        0x0 c:/program files (x86)/atmel/atmel toolchain/avr8 gcc/native/3.4.1061/avr8-gnu-toolchain/bin/../lib/gcc/avr/4.8.1/avr6\libgcc.a(_mulshisi3.o)
 .text.libgcc.div
                0x00000000        0x0 c:/program files (x86)/atmel/atmel toolchain/avr8 gcc/native/3.4.1061/avr8-gnu-toolchain/bin/../lib/gcc/avr/4.8.1/avr6\libgcc.a(_mulshisi3.o)
 .text.libgcc   0x00000000        0x0 c:/program files (x86)/atmel/atmel toolchain/avr8 gcc/native/3.4.1061/avr8-gnu-toolchain/bin/../lib/gcc/avr/4.8.1/avr6\libgcc.a(_mulshisi3.o)
 .text.libgcc.prologue
                0x00000000        0x0 c:/program files (x86)/atmel/atmel toolchain/avr8 gcc/native/3.4.1061/avr8-gnu-toolchain/bin/../lib/gcc/avr/4.8.1/avr6\libgcc.a(_mulshisi3.o)
 .text.libgcc.builtins
                0x00000000        0x0 c:/program files (x86)/atmel/atmel toolchain/avr8 gcc/native/3.4.1061/avr8-gnu-toolchain/bin/../lib/gcc/avr/4.8.1/avr6\libgcc.a(_mulshisi3.o)
 .text.libgcc.fmul
                0x00000000        0x0 c:/program files (x86)/atmel/atmel toolchain/avr8 gcc/native/3.4.1061/avr8-gnu-toolchain/bin/../lib/gcc/avr/4.8.1/avr6\libgcc.a(_mulshisi3.o)
 .text.libgcc.fixed
                0x00000000        0x0 c:/program files (x86)/atmel/atmel toolchain/avr8 gcc/native/3.4.1061/avr8-gnu-toolchain/bin/../lib/gcc/avr/4.8.1/avr6\libgcc.a(_mulshisi3.o)
 .text          0x00000000        0x0 c:/program files (x86)/atmel/atmel toolchain/avr8 gcc/native/3.4.1061/avr8-gnu-toolchain/bin/../lib/gcc/avr/4.8.1/avr6\libgcc.a(_umulsidi3.o)
 .data          0x00000000        0x0 c:/program files (x86)/atmel/atmel toolchain/avr8 gcc/native/3.4.1061/avr8-gnu-toolchain/bin/../lib/gcc/avr/4.8.1/avr6\libgcc.a(_umulsidi3.o)
 .bss           0x00000000        0x0 c:/program files (x86)/atmel/atmel toolchain/avr8 gcc/native/3.4.1061/avr8-gnu-toolchain/bin/../lib/gcc/avr/4.8.1/avr6\libgcc.a(_umulsidi3.o)
 .text.libgcc.mul
                0x00000000       0x56 c:/program files (x86)/atmel/atmel toolchain/avr8 gcc/native/3.4.1061/avr8-gnu-toolchain/bin/../lib/gcc/avr/4.8.1/avr6\libgcc.a(_umulsidi3.o)
 .text.libgcc.div
                0x00000000        0x0 c:/program files (x86)/atmel/atmel toolchain/avr8 gcc/native/3.4.1061/avr8-gnu-toolchain/bin/../lib/gcc/avr/4.8.1/avr6\libgcc.a(_umulsidi3.o)
 .text.libgcc   0x00000000        0x0 c:/program files (x86)/atmel/atmel toolchain/avr8 gcc/native/3.4.1061/avr8-gnu-toolchain/bin/../lib/gcc/avr/4.8.1/avr6\libgcc.a(_umulsidi3.o)
 .text.libgcc.prologue
                0x00000000        0x0 c:/program files (x86)/atmel/atmel toolchain/avr8 gcc/native/3.4.1061/avr8-gnu-toolchain/bin/../lib/gcc/avr/4.8.1/avr6\libgcc.a(_umulsidi3.o)
 .text.libgcc.builtins
                0x00000000        0x0 c:/program files (x86)/atmel/atmel toolchain/avr8 gcc/native/3.4.1061/avr8-gnu-toolchain/bin/../lib/gcc/avr/4.8.1/avr6\libgcc.a(_umulsidi3.o)
 .text.libgcc.fmul
                0x00000000        0x0 c:/program files (x86)/atmel/atmel toolchain/avr8 gcc/native/3.4.1061/avr8-gnu-toolchain/bin/../lib/gcc/avr/4.8.1/avr6\libgcc.a(_umulsidi3.o)
 .text.libgcc.fixed
                0x00000000        0x0 c:/program files (x86)/atmel/atmel toolchain/avr8 gcc/native/3.4.1061/avr8-gnu-toolchain/bin/../lib/gcc/avr/4.8.1/avr6\libgcc.a(_umulsidi3.o)
 .text          0x00000000        0x0 c:/program files (x86)/atmel/atmel toolchain/avr8 gcc/native/3.4.1061/avr8-gnu-toolchain/bin/../lib/gcc/avr/4.8.1/avr6\libgcc.a(_prologue.o)
 .data          0x00000000        0x0 c:/program files (x86)/atmel/atmel toolchain/avr8 gcc/native/3.4.1061/avr8-gnu-toolchain/bin/../lib/gcc/avr/4.8.1/avr6\libgcc.a(_prologue.o)
 .bss           0x00000000        0x0 c:/program files (x86)/atmel/atmel toolchain/avr8 gcc/native/3.4.1061/avr8-gnu-toolchain/bin/../lib/gcc/avr/4.8.1/avr6\libgcc.a(_prologue.o)
 .text.libgcc.mul
                0x00000000        0x0 c:/program files (x86)/atmel/atmel toolchain/avr8 gcc/native/3.4.1061/avr8-gnu-toolchain/bin/../lib/gcc/avr/4.8.1/avr6\libgcc.a(_prologue.o)
 .text.libgcc.div
                0x00000000        0x0 c:/program files (x86)/atmel/atmel toolchain/avr8 gcc/native/3.4.1061/avr8-gnu-toolchain/bin/../lib/gcc/avr/4.8.1/avr6\libgcc.a(_prologue.o)
 .text.libgcc   0x00000000        0x0 c:/program files (x86)/atmel/atmel toolchain/avr8 gcc/native/3.4.1061/avr8-gnu-toolchain/bin/../lib/gcc/avr/4.8.1/avr6\libgcc.a(_prologue.o)
 .text.libgcc.builtins
                0x00000000        0x0 c:/program files (x86)/atmel/atmel toolchain/avr8 gcc/native/3.4.1061/avr8-gnu-toolchain/bin/../lib/gcc/avr/4.8.1/avr6\libgcc.a(_prologue.o)
 .text.libgcc.fmul
                0x00000000        0x0 c:/program files (x86)/atmel/atmel toolchain/avr8 gcc/native/3.4.1061/avr8-gnu-toolchain/bin/../lib/gcc/avr/4.8.1/avr6\libgcc.a(_prologue.o)
 .text.libgcc.fixed
                0x00000000        0x0 c:/program files (x86)/atmel/atmel toolchain/avr8 gcc/native/3.4.1061/avr8-gnu-toolchain/bin/../lib/gcc/avr/4.8.1/avr6\libgcc.a(_prologue.o)
 .text          0x00000000        0x0 c:/program files (x86)/atmel/atmel toolchain/avr8 gcc/native/3.4.1061/avr8-gnu-toolchain/bin/../lib/gcc/avr/4.8.1/avr6\libgcc.a(_epilogue.o)
 .data          0x00000000        0x0 c:/program files (x86)/atmel/atmel toolchain/avr8 gcc/native/3.4.1061/avr8-gnu-toolchain/bin/../lib/gcc/avr/4.8.1/avr6\libgcc.a(_epilogue.o)
 .bss           0x00000000        0x0 c:/program files (x86)/atmel/atmel toolchain/avr8 gcc/native/3.4.1061/avr8-gnu-toolchain/bin/../lib/gcc/avr/4.8.1/avr6\libgcc.a(_epilogue.o)
 .text.libgcc.mul
                0x00000000        0x0 c:/program files (x86)/atmel/atmel toolchain/avr8 gcc/native/3.4.1061/avr8-gnu-toolchain/bin/../lib/gcc/avr/4.8.1/avr6\libgcc.a(_epilogue.o)
 .text.libgcc.div
                0x00000000        0x0 c:/program files (x86)/atmel/atmel toolchain/avr8 gcc/native/3.4.1061/avr8-gnu-toolchain/bin/../lib/gcc/avr/4.8.1/avr6\libgcc.a(_epilogue.o)
 .text.libgcc   0x00000000        0x0 c:/program files (x86)/atmel/atmel toolchain/avr8 gcc/native/3.4.1061/avr8-gnu-toolchain/bin/../lib/gcc/avr/4.8.1/avr6\libgcc.a(_epilogue.o)
 .text.libgcc.builtins
                0x00000000        0x0 c:/program files (x86)/atmel/atmel toolchain/avr8 gcc/native/3.4.1061/avr8-gnu-toolchain/bin/../lib/gcc/avr/4.8.1/avr6\libgcc.a(_epilogue.o)
 .text.libgcc.fmul
                0x00000000        0x0 c:/program files (x86)/atmel/atmel toolchain/avr8 gcc/native/3.4.1061/avr8-gnu-toolchain/bin/../lib/gcc/avr/4.8.1/avr6\libgcc.a(_epilogue.o)
 .text.libgcc.fixed
                0x00000000        0x0 c:/program files (x86)/atmel/atmel toolchain/avr8 gcc/native/3.4.1061/avr8-gnu-toolchain/bin/../lib/gcc/avr/4.8.1/avr6\libgcc.a(_epilogue.o)
 .text          0x00000000        0x0 c:/program files (x86)/atmel/atmel toolchain/avr8 gcc/native/3.4.1061/avr8-gnu-toolchain/bin/../lib/gcc/avr/4.8.1/avr6\libgcc.a(_ashldi3.o)
 .data          0x00000000        0x0 c:/program files (x86)/atmel/atmel toolchain/avr8 gcc/native/3.4.1061/avr8-gnu-toolchain/bin/../lib/gcc/avr/4.8.1/avr6\libgcc.a(_ashldi3.o)
 .bss           0x00000000        0x0 c:/program files (x86)/atmel/atmel toolchain/avr8 gcc/native/3.4.1061/avr8-gnu-toolchain/bin/../lib/gcc/avr/4.8.1/avr6\libgcc.a(_ashldi3.o)
 .text.libgcc.mul
                0x00000000        0x0 c:/program files (x86)/atmel/atmel toolchain/avr8 gcc/native/3.4.1061/avr8-gnu-toolchain/bin/../lib/gcc/avr/4.8.1/avr6\libgcc.a(_ashldi3.o)
 .text.libgcc.div
                0x00000000        0x0 c:/program files (x86)/atmel/atmel toolchain/avr8 gcc/native/3.4.1061/avr8-gnu-toolchain/bin/../lib/gcc/avr/4.8.1/avr6\libgcc.a(_ashldi3.o)
 .text.libgcc   0x00000000        0x0 c:/program files (x86)/atmel/atmel toolchain/avr8 gcc/native/3.4.1061/avr8-gnu-toolchain/bin/../lib/gcc/avr/4.8.1/avr6\libgcc.a(_ashldi3.o)
 .text.libgcc.prologue
                0x00000000        0x0 c:/program files (x86)/atmel/atmel toolchain/avr8 gcc/native/3.4.1061/avr8-gnu-toolchain/bin/../lib/gcc/avr/4.8.1/avr6\libgcc.a(_ashldi3.o)
 .text.libgcc.fmul
                0x00000000        0x0 c:/program files (x86)/atmel/atmel toolchain/avr8 gcc/native/3.4.1061/avr8-gnu-toolchain/bin/../lib/gcc/avr/4.8.1/avr6\libgcc.a(_ashldi3.o)
 .text.libgcc.fixed
                0x00000000        0x0 c:/program files (x86)/atmel/atmel toolchain/avr8 gcc/native/3.4.1061/avr8-gnu-toolchain/bin/../lib/gcc/avr/4.8.1/avr6\libgcc.a(_ashldi3.o)
 .text          0x00000000        0x0 c:/program files (x86)/atmel/atmel toolchain/avr8 gcc/native/3.4.1061/avr8-gnu-toolchain/bin/../lib/gcc/avr/4.8.1/avr6\libgcc.a(_ashrdi3.o)
 .data          0x00000000        0x0 c:/program files (x86)/atmel/atmel toolchain/avr8 gcc/native/3.4.1061/avr8-gnu-toolchain/bin/../lib/gcc/avr/4.8.1/avr6\libgcc.a(_ashrdi3.o)
 .bss           0x00000000        0x0 c:/program files (x86)/atmel/atmel toolchain/avr8 gcc/native/3.4.1061/avr8-gnu-toolchain/bin/../lib/gcc/avr/4.8.1/avr6\libgcc.a(_ashrdi3.o)
 .text.libgcc.mul
                0x00000000        0x0 c:/program files (x86)/atmel/atmel toolchain/avr8 gcc/native/3.4.1061/avr8-gnu-toolchain/bin/../lib/gcc/avr/4.8.1/avr6\libgcc.a(_ashrdi3.o)
 .text.libgcc.div
                0x00000000        0x0 c:/program files (x86)/atmel/atmel toolchain/avr8 gcc/native/3.4.1061/avr8-gnu-toolchain/bin/../lib/gcc/avr/4.8.1/avr6\libgcc.a(_ashrdi3.o)
 .text.libgcc   0x00000000        0x0 c:/program files (x86)/atmel/atmel toolchain/avr8 gcc/native/3.4.1061/avr8-gnu-toolchain/bin/../lib/gcc/avr/4.8.1/avr6\libgcc.a(_ashrdi3.o)
 .text.libgcc.prologue
                0x00000000        0x0 c:/program files (x86)/atmel/atmel toolchain/avr8 gcc/native/3.4.1061/avr8-gnu-toolchain/bin/../lib/gcc/avr/4.8.1/avr6\libgcc.a(_ashrdi3.o)
 .text.libgcc.builtins
                0x00000000       0x3c c:/program files (x86)/atmel/atmel toolchain/avr8 gcc/native/3.4.1061/avr8-gnu-toolchain/bin/../lib/gcc/avr/4.8.1/avr6\libgcc.a(_ashrdi3.o)
 .text.libgcc.fmul
                0x00000000        0x0 c:/program files (x86)/atmel/atmel toolchain/avr8 gcc/native/3.4.1061/avr8-gnu-toolchain/bin/../lib/gcc/avr/4.8.1/avr6\libgcc.a(_ashrdi3.o)
 .text.libgcc.fixed
                0x00000000        0x0 c:/program files (x86)/atmel/atmel toolchain/avr8 gcc/native/3.4.1061/avr8-gnu-toolchain/bin/../lib/gcc/avr/4.8.1/avr6\libgcc.a(_ashrdi3.o)
 .text          0x00000000        0x0 c:/program files (x86)/atmel/atmel toolchain/avr8 gcc/native/3.4.1061/avr8-gnu-toolchain/bin/../lib/gcc/avr/4.8.1/avr6\libgcc.a(_adddi3.o)
 .data          0x00000000        0x0 c:/program files (x86)/atmel/atmel toolchain/avr8 gcc/native/3.4.1061/avr8-gnu-toolchain/bin/../lib/gcc/avr/4.8.1/avr6\libgcc.a(_adddi3.o)
 .bss           0x00000000        0x0 c:/program files (x86)/atmel/atmel toolchain/avr8 gcc/native/3.4.1061/avr8-gnu-toolchain/bin/../lib/gcc/avr/4.8.1/avr6\libgcc.a(_adddi3.o)
 .text.libgcc.mul
                0x00000000        0x0 c:/program files (x86)/atmel/atmel toolchain/avr8 gcc/native/3.4.1061/avr8-gnu-toolchain/bin/../lib/gcc/avr/4.8.1/avr6\libgcc.a(_adddi3.o)
 .text.libgcc.div
                0x00000000        0x0 c:/program files (x86)/atmel/atmel toolchain/avr8 gcc/native/3.4.1061/avr8-gnu-toolchain/bin/../lib/gcc/avr/4.8.1/avr6\libgcc.a(_adddi3.o)
 .text.libgcc.prologue
                0x00000000        0x0 c:/program files (x86)/atmel/atmel toolchain/avr8 gcc/native/3.4.1061/avr8-gnu-toolchain/bin/../lib/gcc/avr/4.8.1/avr6\libgcc.a(_adddi3.o)
 .text.libgcc.builtins
                0x00000000        0x0 c:/program files (x86)/atmel/atmel toolchain/avr8 gcc/native/3.4.1061/avr8-gnu-toolchain/bin/../lib/gcc/avr/4.8.1/avr6\libgcc.a(_adddi3.o)
 .text.libgcc.fmul
                0x00000000        0x0 c:/program files (x86)/atmel/atmel toolchain/avr8 gcc/native/3.4.1061/avr8-gnu-toolchain/bin/../lib/gcc/avr/4.8.1/avr6\libgcc.a(_adddi3.o)
 .text.libgcc.fixed
                0x00000000        0x0 c:/program files (x86)/atmel/atmel toolchain/avr8 gcc/native/3.4.1061/avr8-gnu-toolchain/bin/../lib/gcc/avr/4.8.1/avr6\libgcc.a(_adddi3.o)
 .text          0x00000000        0x0 c:/program files (x86)/atmel/atmel toolchain/avr8 gcc/native/3.4.1061/avr8-gnu-toolchain/bin/../lib/gcc/avr/4.8.1/avr6\libgcc.a(_subdi3.o)
 .data          0x00000000        0x0 c:/program files (x86)/atmel/atmel toolchain/avr8 gcc/native/3.4.1061/avr8-gnu-toolchain/bin/../lib/gcc/avr/4.8.1/avr6\libgcc.a(_subdi3.o)
 .bss           0x00000000        0x0 c:/program files (x86)/atmel/atmel toolchain/avr8 gcc/native/3.4.1061/avr8-gnu-toolchain/bin/../lib/gcc/avr/4.8.1/avr6\libgcc.a(_subdi3.o)
 .text.libgcc.mul
                0x00000000        0x0 c:/program files (x86)/atmel/atmel toolchain/avr8 gcc/native/3.4.1061/avr8-gnu-toolchain/bin/../lib/gcc/avr/4.8.1/avr6\libgcc.a(_subdi3.o)
 .text.libgcc.div
                0x00000000        0x0 c:/program files (x86)/atmel/atmel toolchain/avr8 gcc/native/3.4.1061/avr8-gnu-toolchain/bin/../lib/gcc/avr/4.8.1/avr6\libgcc.a(_subdi3.o)
 .text.libgcc.prologue
                0x00000000        0x0 c:/program files (x86)/atmel/atmel toolchain/avr8 gcc/native/3.4.1061/avr8-gnu-toolchain/bin/../lib/gcc/avr/4.8.1/avr6\libgcc.a(_subdi3.o)
 .text.libgcc.builtins
                0x00000000        0x0 c:/program files (x86)/atmel/atmel toolchain/avr8 gcc/native/3.4.1061/avr8-gnu-toolchain/bin/../lib/gcc/avr/4.8.1/avr6\libgcc.a(_subdi3.o)
 .text.libgcc.fmul
                0x00000000        0x0 c:/program files (x86)/atmel/atmel toolchain/avr8 gcc/native/3.4.1061/avr8-gnu-toolchain/bin/../lib/gcc/avr/4.8.1/avr6\libgcc.a(_subdi3.o)
 .text.libgcc.fixed
                0x00000000        0x0 c:/program files (x86)/atmel/atmel toolchain/avr8 gcc/native/3.4.1061/avr8-gnu-toolchain/bin/../lib/gcc/avr/4.8.1/avr6\libgcc.a(_subdi3.o)
 .text          0x00000000        0x0 c:/program files (x86)/atmel/atmel toolchain/avr8 gcc/native/3.4.1061/avr8-gnu-toolchain/bin/../lib/gcc/avr/4.8.1/avr6\libgcc.a(_cmpdi2.o)
 .data          0x00000000        0x0 c:/program files (x86)/atmel/atmel toolchain/avr8 gcc/native/3.4.1061/avr8-gnu-toolchain/bin/../lib/gcc/avr/4.8.1/avr6\libgcc.a(_cmpdi2.o)
 .bss           0x00000000        0x0 c:/program files (x86)/atmel/atmel toolchain/avr8 gcc/native/3.4.1061/avr8-gnu-toolchain/bin/../lib/gcc/avr/4.8.1/avr6\libgcc.a(_cmpdi2.o)
 .text.libgcc.mul
                0x00000000        0x0 c:/program files (x86)/atmel/atmel toolchain/avr8 gcc/native/3.4.1061/avr8-gnu-toolchain/bin/../lib/gcc/avr/4.8.1/avr6\libgcc.a(_cmpdi2.o)
 .text.libgcc.div
                0x00000000        0x0 c:/program files (x86)/atmel/atmel toolchain/avr8 gcc/native/3.4.1061/avr8-gnu-toolchain/bin/../lib/gcc/avr/4.8.1/avr6\libgcc.a(_cmpdi2.o)
 .text.libgcc.prologue
                0x00000000        0x0 c:/program files (x86)/atmel/atmel toolchain/avr8 gcc/native/3.4.1061/avr8-gnu-toolchain/bin/../lib/gcc/avr/4.8.1/avr6\libgcc.a(_cmpdi2.o)
 .text.libgcc.builtins
                0x00000000        0x0 c:/program files (x86)/atmel/atmel toolchain/avr8 gcc/native/3.4.1061/avr8-gnu-toolchain/bin/../lib/gcc/avr/4.8.1/avr6\libgcc.a(_cmpdi2.o)
 .text.libgcc.fmul
                0x00000000        0x0 c:/program files (x86)/atmel/atmel toolchain/avr8 gcc/native/3.4.1061/avr8-gnu-toolchain/bin/../lib/gcc/avr/4.8.1/avr6\libgcc.a(_cmpdi2.o)
 .text.libgcc.fixed
                0x00000000        0x0 c:/program files (x86)/atmel/atmel toolchain/avr8 gcc/native/3.4.1061/avr8-gnu-toolchain/bin/../lib/gcc/avr/4.8.1/avr6\libgcc.a(_cmpdi2.o)
 .text          0x00000000        0x0 c:/program files (x86)/atmel/atmel toolchain/avr8 gcc/native/3.4.1061/avr8-gnu-toolchain/bin/../lib/gcc/avr/4.8.1/avr6\libgcc.a(_cmpdi2_s8.o)
 .data          0x00000000        0x0 c:/program files (x86)/atmel/atmel toolchain/avr8 gcc/native/3.4.1061/avr8-gnu-toolchain/bin/../lib/gcc/avr/4.8.1/avr6\libgcc.a(_cmpdi2_s8.o)
 .bss           0x00000000        0x0 c:/program files (x86)/atmel/atmel toolchain/avr8 gcc/native/3.4.1061/avr8-gnu-toolchain/bin/../lib/gcc/avr/4.8.1/avr6\libgcc.a(_cmpdi2_s8.o)
 .text.libgcc.mul
                0x00000000        0x0 c:/program files (x86)/atmel/atmel toolchain/avr8 gcc/native/3.4.1061/avr8-gnu-toolchain/bin/../lib/gcc/avr/4.8.1/avr6\libgcc.a(_cmpdi2_s8.o)
 .text.libgcc.div
                0x00000000        0x0 c:/program files (x86)/atmel/atmel toolchain/avr8 gcc/native/3.4.1061/avr8-gnu-toolchain/bin/../lib/gcc/avr/4.8.1/avr6\libgcc.a(_cmpdi2_s8.o)
 .text.libgcc.prologue
                0x00000000        0x0 c:/program files (x86)/atmel/atmel toolchain/avr8 gcc/native/3.4.1061/avr8-gnu-toolchain/bin/../lib/gcc/avr/4.8.1/avr6\libgcc.a(_cmpdi2_s8.o)
 .text.libgcc.builtins
                0x00000000        0x0 c:/program files (x86)/atmel/atmel toolchain/avr8 gcc/native/3.4.1061/avr8-gnu-toolchain/bin/../lib/gcc/avr/4.8.1/avr6\libgcc.a(_cmpdi2_s8.o)
 .text.libgcc.fmul
                0x00000000        0x0 c:/program files (x86)/atmel/atmel toolchain/avr8 gcc/native/3.4.1061/avr8-gnu-toolchain/bin/../lib/gcc/avr/4.8.1/avr6\libgcc.a(_cmpdi2_s8.o)
 .text.libgcc.fixed
                0x00000000        0x0 c:/program files (x86)/atmel/atmel toolchain/avr8 gcc/native/3.4.1061/avr8-gnu-toolchain/bin/../lib/gcc/avr/4.8.1/avr6\libgcc.a(_cmpdi2_s8.o)
 .text          0x00000000        0x0 c:/program files (x86)/atmel/atmel toolchain/avr8 gcc/native/3.4.1061/avr8-gnu-toolchain/bin/../lib/gcc/avr/4.8.1/avr6\libgcc.a(_muldi3_6.o)
 .data          0x00000000        0x0 c:/program files (x86)/atmel/atmel toolchain/avr8 gcc/native/3.4.1061/avr8-gnu-toolchain/bin/../lib/gcc/avr/4.8.1/avr6\libgcc.a(_muldi3_6.o)
 .bss           0x00000000        0x0 c:/program files (x86)/atmel/atmel toolchain/avr8 gcc/native/3.4.1061/avr8-gnu-toolchain/bin/../lib/gcc/avr/4.8.1/avr6\libgcc.a(_muldi3_6.o)
 .text.libgcc.mul
                0x00000000       0x12 c:/program files (x86)/atmel/atmel toolchain/avr8 gcc/native/3.4.1061/avr8-gnu-toolchain/bin/../lib/gcc/avr/4.8.1/avr6\libgcc.a(_muldi3_6.o)
 .text.libgcc.div
                0x00000000        0x0 c:/program files (x86)/atmel/atmel toolchain/avr8 gcc/native/3.4.1061/avr8-gnu-toolchain/bin/../lib/gcc/avr/4.8.1/avr6\libgcc.a(_muldi3_6.o)
 .text.libgcc   0x00000000        0x0 c:/program files (x86)/atmel/atmel toolchain/avr8 gcc/native/3.4.1061/avr8-gnu-toolchain/bin/../lib/gcc/avr/4.8.1/avr6\libgcc.a(_muldi3_6.o)
 .text.libgcc.prologue
                0x00000000        0x0 c:/program files (x86)/atmel/atmel toolchain/avr8 gcc/native/3.4.1061/avr8-gnu-toolchain/bin/../lib/gcc/avr/4.8.1/avr6\libgcc.a(_muldi3_6.o)
 .text.libgcc.builtins
                0x00000000        0x0 c:/program files (x86)/atmel/atmel toolchain/avr8 gcc/native/3.4.1061/avr8-gnu-toolchain/bin/../lib/gcc/avr/4.8.1/avr6\libgcc.a(_muldi3_6.o)
 .text.libgcc.fmul
                0x00000000        0x0 c:/program files (x86)/atmel/atmel toolchain/avr8 gcc/native/3.4.1061/avr8-gnu-toolchain/bin/../lib/gcc/avr/4.8.1/avr6\libgcc.a(_muldi3_6.o)
 .text.libgcc.fixed
                0x00000000        0x0 c:/program files (x86)/atmel/atmel toolchain/avr8 gcc/native/3.4.1061/avr8-gnu-toolchain/bin/../lib/gcc/avr/4.8.1/avr6\libgcc.a(_muldi3_6.o)
 .text          0x00000000        0x0 c:/program files (x86)/atmel/atmel toolchain/avr8 gcc/native/3.4.1061/avr8-gnu-toolchain/bin/../lib/gcc/avr/4.8.1/../../../../avr/lib/avr6\libc.a(rand.o)
 .bss           0x00000000        0x0 c:/program files (x86)/atmel/atmel toolchain/avr8 gcc/native/3.4.1061/avr8-gnu-toolchain/bin/../lib/gcc/avr/4.8.1/../../../../avr/lib/avr6\libc.a(rand.o)
 .text          0x00000000        0x0 c:/program files (x86)/atmel/atmel toolchain/avr8 gcc/native/3.4.1061/avr8-gnu-toolchain/bin/../lib/gcc/avr/4.8.1/../../../../avr/lib/avr6\libc.a(memcpy_P.o)
 .data          0x00000000        0x0 c:/program files (x86)/atmel/atmel toolchain/avr8 gcc/native/3.4.1061/avr8-gnu-toolchain/bin/../lib/gcc/avr/4.8.1/../../../../avr/lib/avr6\libc.a(memcpy_P.o)
 .bss           0x00000000        0x0 c:/program files (x86)/atmel/atmel toolchain/avr8 gcc/native/3.4.1061/avr8-gnu-toolchain/bin/../lib/gcc/avr/4.8.1/../../../../avr/lib/avr6\libc.a(memcpy_P.o)
 .text          0x00000000        0x0 c:/program files (x86)/atmel/atmel toolchain/avr8 gcc/native/3.4.1061/avr8-gnu-toolchain/bin/../lib/gcc/avr/4.8.1/../../../../avr/lib/avr6\libc.a(memcmp.o)
 .data          0x00000000        0x0 c:/program files (x86)/atmel/atmel toolchain/avr8 gcc/native/3.4.1061/avr8-gnu-toolchain/bin/../lib/gcc/avr/4.8.1/../../../../avr/lib/avr6\libc.a(memcmp.o)
 .bss           0x00000000        0x0 c:/program files (x86)/atmel/atmel toolchain/avr8 gcc/native/3.4.1061/avr8-gnu-toolchain/bin/../lib/gcc/avr/4.8.1/../../../../avr/lib/avr6\libc.a(memcmp.o)
 .text          0x00000000        0x0 c:/program files (x86)/atmel/atmel toolchain/avr8 gcc/native/3.4.1061/avr8-gnu-toolchain/bin/../lib/gcc/avr/4.8.1/../../../../avr/lib/avr6\libc.a(memcpy.o)
 .data          0x00000000        0x0 c:/program files (x86)/atmel/atmel toolchain/avr8 gcc/native/3.4.1061/avr8-gnu-toolchain/bin/../lib/gcc/avr/4.8.1/../../../../avr/lib/avr6\libc.a(memcpy.o)
 .bss           0x00000000        0x0 c:/program files (x86)/atmel/atmel toolchain/avr8 gcc/native/3.4.1061/avr8-gnu-toolchain/bin/../lib/gcc/avr/4.8.1/../../../../avr/lib/avr6\libc.a(memcpy.o)
 .text          0x00000000        0x0 c:/program files (x86)/atmel/atmel toolchain/avr8 gcc/native/3.4.1061/avr8-gnu-toolchain/bin/../lib/gcc/avr/4.8.1/../../../../avr/lib/avr6\libc.a(memmove.o)
 .data          0x00000000        0x0 c:/program files (x86)/atmel/atmel toolchain/avr8 gcc/native/3.4.1061/avr8-gnu-toolchain/bin/../lib/gcc/avr/4.8.1/../../../../avr/lib/avr6\libc.a(memmove.o)
 .bss           0x00000000        0x0 c:/program files (x86)/atmel/atmel toolchain/avr8 gcc/native/3.4.1061/avr8-gnu-toolchain/bin/../lib/gcc/avr/4.8.1/../../../../avr/lib/avr6\libc.a(memmove.o)
 .text          0x00000000        0x0 c:/program files (x86)/atmel/atmel toolchain/avr8 gcc/native/3.4.1061/avr8-gnu-toolchain/bin/../lib/gcc/avr/4.8.1/../../../../avr/lib/avr6\libc.a(memset.o)
 .data          0x00000000        0x0 c:/program files (x86)/atmel/atmel toolchain/avr8 gcc/native/3.4.1061/avr8-gnu-toolchain/bin/../lib/gcc/avr/4.8.1/../../../../avr/lib/avr6\libc.a(memset.o)
 .bss           0x00000000        0x0 c:/program files (x86)/atmel/atmel toolchain/avr8 gcc/native/3.4.1061/avr8-gnu-toolchain/bin/../lib/gcc/avr/4.8.1/../../../../avr/lib/avr6\libc.a(memset.o)

Memory Configuration

Name             Origin             Length             Attributes
text             0x00000000         0x00040000         xr
boot             0x0003f000         0x00001000         xr
access           0x0003fffe         0x00000002         xr
data             0x00800200         0x00007e0c         rw !x
eeprom           0x00810000         0x00002000         rw !x
*default*        0x00000000         0xffffffff

Linker script and memory map

Address of section .data set to 0x800200
LOAD c:/program files (x86)/atmel/atmel toolchain/avr8 gcc/native/3.4.1061/avr8-gnu-toolchain/bin/../lib/gcc/avr/4.8.1/../../../../avr/lib/avr6/crtm256rfr2.o

.text           0x00000000    0x1e69a
                0x00000000                PROVIDE (__text_start, .)
 *(.vectors)
 .vectors       0x00000000      0x134 c:/program files (x86)/atmel/atmel toolchain/avr8 gcc/native/3.4.1061/avr8-gnu-toolchain/bin/../lib/gcc/avr/4.8.1/../../../../avr/lib/avr6/crtm256rfr2.o
                0x00000000                __vector_default
                0x00000000                __vectors
 *(.vectors)
                0x00000400                . = ALIGN (0x400)
 *fill*         0x00000134      0x2cc 
                0x00000400                PROVIDE (__d_nv_mem_start, .)
                0x00004400                . = ALIGN (0x4400)
 *fill*         0x00000400     0x4000 
                0x00004400                PROVIDE (__d_nv_mem_end, .)
                0x00004400                PROVIDE (__pds_ff_start, .)
 *(.pds_ff)
 .pds_ff        0x00004400       0x96 All_MegaRf_Atmega256rfr2_8Mhz_Gcc/Obj/csPersistentMem.o
                0x00004400                pds_ff_CS_APS_BINDING_TABLE_MEM_ID
                0x00004406                pds_ff_CS_GROUP_TABLE_MEM_ID
                0x0000440c                pds_ff_CS_NEIB_TABLE_MEM_ID
                0x00004412                pds_ff_CS_NWK_LOGICAL_CHANNEL_MEM_ID
                0x00004418                pds_ff_CS_NWK_EXT_PANID_MEM_ID
                0x0000441e                pds_ff_CS_NWK_DEPTH_MEM_ID
                0x00004424                pds_ff_CS_NWK_PARENT_ADDR_MEM_ID
                0x0000442a                pds_ff_NWK_RREQ_IDENTIFIER_MEM_ID
                0x00004430                pds_ff_NWK_UPDATE_ID_MEM_ID
                0x00004436                pds_ff_CS_DTR_WAKEUP_MEM_ID
                0x0000443c                pds_ff_CS_NWK_LEAVE_REQ_ALLOWED_MEM_ID
                0x00004442                pds_ff_CS_NWK_UNIQUE_ADDR_MEM_ID
                0x00004448                pds_ff_CS_NWK_ADDR_MEM_ID
                0x0000444e                pds_ff_CS_NWK_PREDEFINED_PANID_MEM_ID
                0x00004454                pds_ff_CS_NWK_PANID_MEM_ID
                0x0000445a                pds_ff_CS_ZDP_USER_DESCRIPTOR_MEM_ID
                0x00004460                pds_ff_CS_USER_DESCRIPTOR_AVAILABLE_MEM_ID
                0x00004466                pds_ff_CS_COMPLEX_DESCRIPTOR_AVAILABLE_MEM_ID
                0x0000446c                pds_ff_CS_RX_ON_WHEN_IDLE_MEM_ID
                0x00004472                pds_ff_CS_DEVICE_TYPE_MEM_ID
                0x00004478                pds_ff_CS_CHANNEL_PAGE_MEM_ID
                0x0000447e                pds_ff_CS_CHANNEL_MASK_MEM_ID
                0x00004484                pds_ff_CS_EXT_PANID_MEM_ID
                0x0000448a                pds_ff_CS_RF_TX_POWER_MEM_ID
                0x00004490                pds_ff_CS_UID_MEM_ID
                0x00004496                PROVIDE (__pds_ff_end, .)
                0x00004496                PROVIDE (__pds_fd_start, .)
 *(.pds_fd)
 .pds_fd        0x00004496       0x1e All_MegaRf_Atmega256rfr2_8Mhz_Gcc/Obj/csPersistentMem.o
                0x00004496                BCRejoinParamsDirDescr
                0x0000449c                BCExtGenParamsDirDescr
                0x000044a2                BCSystemDirDescr
                0x000044a8                csExtendedParamsDirDescr
                0x000044ae                csGeneralParamsDirDescr
                0x000044b4                PROVIDE (__pds_fd_end, .)
 *(.progmem.gcc*)
 .progmem.gcc_sw_table.macenvSetPibAttr
                0x000044b4       0x98 ../../../../BitCloud/lib/libBc_All_Atmega256rfr2_Atmega256rfr2_Gcc.a(macenvPib.o)
 .progmem.gcc_sw_table.macenvGetPibAttr
                0x0000454c       0x98 ../../../../BitCloud/lib/libBc_All_Atmega256rfr2_Atmega256rfr2_Gcc.a(macenvPib.o)
 .progmem.gcc_sw_table.MAC_PHY_HWD_TaskHandler
                0x000045e4       0x2a ../../../../BitCloud/lib/libBc_All_Atmega256rfr2_Atmega256rfr2_Gcc.a(machwdManager.o)
 .progmem.gcc_sw_table.machwiSendConfToUpperLayer
                0x0000460e       0x20 ../../../../BitCloud/lib/libBc_All_Atmega256rfr2_Atmega256rfr2_Gcc.a(machwiManager.o)
 .progmem.gcc_sw_table.MAC_HWI_TaskHandler
                0x0000462e       0x1c ../../../../BitCloud/lib/libBc_All_Atmega256rfr2_Atmega256rfr2_Gcc.a(machwiManager.o)
 .progmem.gcc_sw_table.MACHWD_DataInd
                0x0000464a       0x16 ../../../../BitCloud/lib/libBc_All_Atmega256rfr2_Atmega256rfr2_Gcc.a(machwiPanServer.o)
 .progmem.gcc_sw_table.machwdSetConfirm
                0x00004660       0x20 ../../../../BitCloud/lib/libBc_All_Atmega256rfr2_Atmega256rfr2_Gcc.a(machwiScanHandler.o)
 .progmem.gcc_sw_table.nwkJoinReqMacSetConf
                0x00004680       0x24 ../../../../BitCloud/lib/libBc_All_Atmega256rfr2_Atmega256rfr2_Gcc.a(nwk.o)
 .progmem.gcc_sw_table.nwkTxDelayReq
                0x000046a4       0x1e ../../../../BitCloud/lib/libBc_All_Atmega256rfr2_Atmega256rfr2_Gcc.a(nwk.o)
 .progmem.gcc_sw_table.nwkTxTaskHandler
                0x000046c2       0x14 ../../../../BitCloud/lib/libBc_All_Atmega256rfr2_Atmega256rfr2_Gcc.a(nwk.o)
 .progmem.gcc_sw_table.zdoZdpReqHandler
                0x000046d6       0x2c ../../../../BitCloud/lib/libBc_All_Atmega256rfr2_Atmega256rfr2_Gcc.a(zdo.o)
 .progmem.gcc_sw_table.NWK_NwkStatusInd
                0x00004702       0x1c ../../../../BitCloud/lib/libBc_All_Atmega256rfr2_Atmega256rfr2_Gcc.a(zdo.o)
 .progmem.gcc_sw_table.APS_ZdoDataInd
                0x0000471e       0x2c ../../../../BitCloud/lib/libBc_All_Atmega256rfr2_Atmega256rfr2_Gcc.a(zdo.o)
 .progmem.gcc_sw_table.machwdParseFrame
                0x0000474a       0x10 ../../../../BitCloud/lib/libBc_All_Atmega256rfr2_Atmega256rfr2_Gcc.a(machwdFrameRoutine.o)
 .progmem.gcc_sw_table.machwdComposeFrame
                0x0000475a       0x16 ../../../../BitCloud/lib/libBc_All_Atmega256rfr2_Atmega256rfr2_Gcc.a(machwdFrameRoutine.o)
 *(.progmem*)
 .progmem.data  0x00004770       0xaa All_MegaRf_Atmega256rfr2_8Mhz_Gcc/Obj/csPersistentMem.o
                0x00004770                BCRejoinParamsMemoryIdsTable
                0x00004794                BCExtGenParamsMemoryIdsTable
                0x000047be                BCSystemMemoryIdsTable
                0x000047f0                CsExtendedMemoryIdsTable
                0x000047f8                CsGeneralMemoryIdsTable
 .progmem.data  0x0000481a      0x366 All_MegaRf_Atmega256rfr2_8Mhz_Gcc/Obj/csMem.o
                0x0000481a                csMemItems
                0x000048aa                csConstItems
                0x00004966                csVarItems
                0x00004a6a                csReadOnlyItems
                0x00004a9c                defaultSIB
                0x00004adf                defaultAIB
                0x00004ae2                defaultZIB
                0x00004af9                defaultNIB
 .progmem.data  0x00004b80       0x10 ../../../../BitCloud/lib/libBc_All_Atmega256rfr2_Atmega256rfr2_Gcc.a(aps.o)
 .progmem.data  0x00004b90      0x138 ../../../../BitCloud/lib/libBc_All_Atmega256rfr2_Atmega256rfr2_Gcc.a(nwk.o)
 .progmem.data  0x00004cc8        0xc ../../../../BitCloud/lib/libBc_All_Atmega256rfr2_Atmega256rfr2_Gcc.a(zdo.o)
 .progmem.data  0x00004cd4       0x20 ../../../../BitCloud/lib/libHAL_MegaRf_Atmega256rfr2_8Mhz_Gcc.a(halTaskManager.o)
                0x00004cd4                halHandlers
 .progmem.data  0x00004cf4        0xc ../../../../BitCloud/lib/libHAL_MegaRf_Atmega256rfr2_8Mhz_Gcc.a(usart.o)
                0x00004d00                . = ALIGN (0x2)
 *(.trampolines*)
 .trampolines   0x00004d00        0x0 linker stubs
 *(.jumptables*)
 *(.lowtext*)
 *(.init0)
 .init0         0x00004d00        0x0 c:/program files (x86)/atmel/atmel toolchain/avr8 gcc/native/3.4.1061/avr8-gnu-toolchain/bin/../lib/gcc/avr/4.8.1/../../../../avr/lib/avr6/crtm256rfr2.o
                0x00004d00                __init
 .init0         0x00004d00       0x36 ../../../../BitCloud/lib/WdtInitatmega256rfr2_Gcc.o
                0x00004d00                halWdtInit
 *(.init0)
 *(.init1)
 *(.init1)
 *(.init2)
 .init2         0x00004d36       0x10 c:/program files (x86)/atmel/atmel toolchain/avr8 gcc/native/3.4.1061/avr8-gnu-toolchain/bin/../lib/gcc/avr/4.8.1/../../../../avr/lib/avr6/crtm256rfr2.o
 *(.init2)
 *(.init3)
 *(.init3)
 *(.init4)
 .init4         0x00004d46       0x1a c:/program files (x86)/atmel/atmel toolchain/avr8 gcc/native/3.4.1061/avr8-gnu-toolchain/bin/../lib/gcc/avr/4.8.1/avr6\libgcc.a(_copy_data.o)
                0x00004d46                __do_copy_data
 .init4         0x00004d60       0x10 c:/program files (x86)/atmel/atmel toolchain/avr8 gcc/native/3.4.1061/avr8-gnu-toolchain/bin/../lib/gcc/avr/4.8.1/avr6\libgcc.a(_clear_bss.o)
                0x00004d60                __do_clear_bss
 *(.init4)
 *(.init5)
 *(.init5)
 *(.init6)
 *(.init6)
 *(.init7)
 *(.init7)
 *(.init8)
 *(.init8)
 *(.text.main)
 *(.text*main)
 .text.startup.main
                0x00004d70        0xa All_MegaRf_Atmega256rfr2_8Mhz_Gcc/Obj/app.o
                0x00004d70                main
 *(.text)
 .text          0x00004d7a        0x4 c:/program files (x86)/atmel/atmel toolchain/avr8 gcc/native/3.4.1061/avr8-gnu-toolchain/bin/../lib/gcc/avr/4.8.1/../../../../avr/lib/avr6/crtm256rfr2.o
                0x00004d7a                __vector_22
                0x00004d7a                __vector_28
                0x00004d7a                __vector_67
                0x00004d7a                __vector_32
                0x00004d7a                __vector_75
                0x00004d7a                __vector_34
                0x00004d7a                __vector_62
                0x00004d7a                __vector_12
                0x00004d7a                __vector_55
                0x00004d7a                __vector_69
                0x00004d7a                __vector_46
                0x00004d7a                __bad_interrupt
                0x00004d7a                __vector_72
                0x00004d7a                __vector_31
                0x00004d7a                __vector_35
                0x00004d7a                __vector_74
                0x00004d7a                __vector_23
                0x00004d7a                __vector_68
                0x00004d7a                __vector_73
                0x00004d7a                __vector_45
                0x00004d7a                __vector_61
                0x00004d7a                __vector_11
                0x00004d7a                __vector_54
                0x00004d7a                __vector_17
                0x00004d7a                __vector_19
                0x00004d7a                __vector_56
                0x00004d7a                __vector_49
                0x00004d7a                __vector_41
                0x00004d7a                __vector_64
                0x00004d7a                __vector_33
                0x00004d7a                __vector_76
                0x00004d7a                __vector_47
                0x00004d7a                __vector_52
                0x00004d7a                __vector_44
                0x00004d7a                __vector_51
                0x00004d7a                __vector_9
                0x00004d7a                __vector_21
                0x00004d7a                __vector_66
                0x00004d7a                __vector_58
                0x00004d7a                __vector_70
                0x00004d7a                __vector_40
                0x00004d7a                __vector_48
                0x00004d7a                __vector_14
                0x00004d7a                __vector_57
                0x00004d7a                __vector_53
                0x00004d7a                __vector_10
                0x00004d7a                __vector_50
                0x00004d7a                __vector_16
                0x00004d7a                __vector_59
                0x00004d7a                __vector_18
                0x00004d7a                __vector_20
                0x00004d7a                __vector_65
 .text          0x00004d7e       0xb8 ../../../../BitCloud/lib/libHAL_MegaRf_Atmega256rfr2_8Mhz_Gcc.a(halW1.o)
                0x00004d7e                halResetW1
                0x00004daa                halReadW1Bit
                0x00004dd4                halReadW1
                0x00004dee                halWriteW1bit
                0x00004e16                halWriteW1
                0x00004e26                __delay_us
 .text          0x00004e36       0x3a ../../../../BitCloud/lib/libHAL_MegaRf_Atmega256rfr2_8Mhz_Gcc.a(halCalibration.o)
                0x00004e36                halMeasurement
 *(.text.*)
 .text.sendTimerFired
                0x00004e70       0x20 All_MegaRf_Atmega256rfr2_8Mhz_Gcc/Obj/app.o
 .text.ZDO_StartNetworkConf
                0x00004e90       0x5c All_MegaRf_Atmega256rfr2_8Mhz_Gcc/Obj/app.o
 .text.APL_TaskHandler
                0x00004eec       0xae All_MegaRf_Atmega256rfr2_8Mhz_Gcc/Obj/app.o
                0x00004eec                APL_TaskHandler
 .text.ZDO_MgmtNwkUpdateNotf
                0x00004f9a        0x2 All_MegaRf_Atmega256rfr2_8Mhz_Gcc/Obj/app.o
                0x00004f9a                ZDO_MgmtNwkUpdateNotf
 .text.ZDO_WakeUpInd
                0x00004f9c        0x2 All_MegaRf_Atmega256rfr2_8Mhz_Gcc/Obj/app.o
                0x00004f9c                ZDO_WakeUpInd
 .text.ZDO_BindIndication
                0x00004f9e        0x2 All_MegaRf_Atmega256rfr2_8Mhz_Gcc/Obj/app.o
                0x00004f9e                ZDO_BindIndication
 .text.ZDO_UnbindIndication
                0x00004fa0        0x2 All_MegaRf_Atmega256rfr2_8Mhz_Gcc/Obj/app.o
                0x00004fa0                ZDO_UnbindIndication
 .text.copyStrToBuffer
                0x00004fa2       0x80 All_MegaRf_Atmega256rfr2_8Mhz_Gcc/Obj/usartManager.o
 .text.usartWriteConf
                0x00005022       0xac All_MegaRf_Atmega256rfr2_8Mhz_Gcc/Obj/usartManager.o
 .text.appInitUsartManager
                0x000050ce       0x5e All_MegaRf_Atmega256rfr2_8Mhz_Gcc/Obj/usartManager.o
                0x000050ce                appInitUsartManager
 .text.appWriteDataToUsart
                0x0000512c       0x68 All_MegaRf_Atmega256rfr2_8Mhz_Gcc/Obj/usartManager.o
                0x0000512c                appWriteDataToUsart
 .text.pdsGetFileDescrRec
                0x00005194       0x62 All_MegaRf_Atmega256rfr2_8Mhz_Gcc/Obj/stdPdsMemAccess.o
                0x00005194                pdsGetFileDescrRec
 .text.pdsGetFileOffset
                0x000051f6      0x11a All_MegaRf_Atmega256rfr2_8Mhz_Gcc/Obj/stdPdsMemAccess.o
                0x000051f6                pdsGetFileOffset
 .text.pdsPrepareMemoryAccess
                0x00005310       0xd0 All_MegaRf_Atmega256rfr2_8Mhz_Gcc/Obj/stdPdsMemAccess.o
                0x00005310                pdsPrepareMemoryAccess
 .text.pdsExpandWithDirContent
                0x000053e0      0x122 All_MegaRf_Atmega256rfr2_8Mhz_Gcc/Obj/stdPdsMemAccess.o
                0x000053e0                pdsExpandWithDirContent
 .text.pdsPrepareAccessContext
                0x00005502       0x3a All_MegaRf_Atmega256rfr2_8Mhz_Gcc/Obj/stdPdsMemAccess.o
                0x00005502                pdsPrepareAccessContext
 .text.pdsTimerFired
                0x0000553c        0xc All_MegaRf_Atmega256rfr2_8Mhz_Gcc/Obj/stdPdsTimer.o
 .text.pdsTimerInit
                0x00005548       0x12 All_MegaRf_Atmega256rfr2_8Mhz_Gcc/Obj/stdPdsTimer.o
                0x00005548                pdsTimerInit
 .text.pdsDummyCallback
                0x0000555a        0x2 All_MegaRf_Atmega256rfr2_8Mhz_Gcc/Obj/stdPdsWriteData.o
                0x0000555a                pdsDummyCallback
 .text.pdsAddDataForCommitment
                0x0000555c       0x24 All_MegaRf_Atmega256rfr2_8Mhz_Gcc/Obj/stdPdsWriteData.o
                0x0000555c                pdsAddDataForCommitment
 .text.pdsWaitMemoryFree
                0x00005580        0xe All_MegaRf_Atmega256rfr2_8Mhz_Gcc/Obj/stdPdsWriteData.o
                0x00005580                pdsWaitMemoryFree
 .text.pdsWrite
                0x0000558e       0x3c All_MegaRf_Atmega256rfr2_8Mhz_Gcc/Obj/stdPdsWriteData.o
                0x0000558e                pdsWrite
 .text.pdsRead  0x000055ca       0x3c All_MegaRf_Atmega256rfr2_8Mhz_Gcc/Obj/stdPdsWriteData.o
                0x000055ca                pdsRead
 .text.pdsStartCommitment
                0x00005606      0x176 All_MegaRf_Atmega256rfr2_8Mhz_Gcc/Obj/stdPdsWriteData.o
                0x00005606                pdsStartCommitment
 .text.pdsCalculateRAMDataCrc
                0x0000577c       0x14 All_MegaRf_Atmega256rfr2_8Mhz_Gcc/Obj/stdPdsCrcService.o
                0x0000577c                pdsCalculateRAMDataCrc
 .text.PDS_Init
                0x00005790      0x29a All_MegaRf_Atmega256rfr2_8Mhz_Gcc/Obj/stdPdsInit.o
                0x00005790                PDS_Init
 .text.pdsMemMaskIsAnyBitSet
                0x00005a2a       0x1a All_MegaRf_Atmega256rfr2_8Mhz_Gcc/Obj/stdPdsDataServer.o
 .text.pdsInitMemMask
                0x00005a44       0x36 All_MegaRf_Atmega256rfr2_8Mhz_Gcc/Obj/stdPdsDataServer.o
 .text.pdsGetMemoryAllowed.part.0
                0x00005a7a       0x1a All_MegaRf_Atmega256rfr2_8Mhz_Gcc/Obj/stdPdsDataServer.o
 .text.PDS_Store
                0x00005a94       0x3e All_MegaRf_Atmega256rfr2_8Mhz_Gcc/Obj/stdPdsDataServer.o
                0x00005a94                PDS_Store
 .text.PDS_TaskHandler
                0x00005ad2        0x2 All_MegaRf_Atmega256rfr2_8Mhz_Gcc/Obj/stdPdsDataServer.o
                0x00005ad2                PDS_TaskHandler
 .text.sysIdleHandlerSleepConf
                0x00005ad4        0x2 All_MegaRf_Atmega256rfr2_8Mhz_Gcc/Obj/sysIdleHandler.o
 .text.SYS_IdleHandler
                0x00005ad6       0x5a All_MegaRf_Atmega256rfr2_8Mhz_Gcc/Obj/sysIdleHandler.o
                0x00005ad6                SYS_IdleHandler
 .text.SYS_IsSleepWhenIdleEnabled
                0x00005b30        0x6 All_MegaRf_Atmega256rfr2_8Mhz_Gcc/Obj/sysIdleHandler.o
                0x00005b30                SYS_IsSleepWhenIdleEnabled
 .text.SYS_Sleep
                0x00005b36        0x6 All_MegaRf_Atmega256rfr2_8Mhz_Gcc/Obj/sysSleep.o
                0x00005b36                SYS_Sleep
 .text.SYS_PostEvent
                0x00005b3c       0x9c All_MegaRf_Atmega256rfr2_8Mhz_Gcc/Obj/sysEventsHandler.o
                0x00005b3c                SYS_PostEvent
 .text.SYS_IsEventDeliverable
                0x00005bd8       0x34 All_MegaRf_Atmega256rfr2_8Mhz_Gcc/Obj/sysEventsHandler.o
                0x00005bd8                SYS_IsEventDeliverable
 .text.SYS_IsEventSubscriber
                0x00005c0c       0x2e All_MegaRf_Atmega256rfr2_8Mhz_Gcc/Obj/sysEventsHandler.o
                0x00005c0c                SYS_IsEventSubscriber
 .text.SYS_SubscribeToEvent
                0x00005c3a       0x82 All_MegaRf_Atmega256rfr2_8Mhz_Gcc/Obj/sysEventsHandler.o
                0x00005c3a                SYS_SubscribeToEvent
 .text.SYS_UnsubscribeFromEvent
                0x00005cbc       0x88 All_MegaRf_Atmega256rfr2_8Mhz_Gcc/Obj/sysEventsHandler.o
                0x00005cbc                SYS_UnsubscribeFromEvent
 .text.deleteHeadQueueElem
                0x00005d44       0x18 All_MegaRf_Atmega256rfr2_8Mhz_Gcc/Obj/sysQueue.o
                0x00005d44                deleteHeadQueueElem
 .text.deleteQueueElem
                0x00005d5c       0x40 All_MegaRf_Atmega256rfr2_8Mhz_Gcc/Obj/sysQueue.o
                0x00005d5c                deleteQueueElem
 .text.isQueueElem
                0x00005d9c       0x20 All_MegaRf_Atmega256rfr2_8Mhz_Gcc/Obj/sysQueue.o
                0x00005d9c                isQueueElem
 .text.putQueueElem
                0x00005dbc       0x56 All_MegaRf_Atmega256rfr2_8Mhz_Gcc/Obj/sysQueue.o
                0x00005dbc                putQueueElem
 .text.sysRndConfirm
                0x00005e12       0x46 All_MegaRf_Atmega256rfr2_8Mhz_Gcc/Obj/sysUtils.o
 .text.sysUpdateRndSeedTimerFired
                0x00005e58        0xa All_MegaRf_Atmega256rfr2_8Mhz_Gcc/Obj/sysUtils.o
 .text.sysStartUpdatingRandSeed
                0x00005e62       0x24 All_MegaRf_Atmega256rfr2_8Mhz_Gcc/Obj/sysUtils.o
                0x00005e62                sysStartUpdatingRandSeed
 .text.sysStopUpdatingRandSeed
                0x00005e86        0xa All_MegaRf_Atmega256rfr2_8Mhz_Gcc/Obj/sysUtils.o
                0x00005e86                sysStopUpdatingRandSeed
 .text.SYS_DefAssertCallbackError
                0x00005e90       0x30 All_MegaRf_Atmega256rfr2_8Mhz_Gcc/Obj/sysAssert.o
                0x00005e90                SYS_DefAssertCallbackError
 .text.SYS_DefAssertCallbackFatal
                0x00005ec0       0x30 All_MegaRf_Atmega256rfr2_8Mhz_Gcc/Obj/sysAssert.o
                0x00005ec0                SYS_DefAssertCallbackFatal
 .text.SYS_DuplicateTableReset
                0x00005ef0       0x64 All_MegaRf_Atmega256rfr2_8Mhz_Gcc/Obj/sysDuplicateTable.o
                0x00005ef0                SYS_DuplicateTableReset
 .text.SYS_DuplicateTableCheck
                0x00005f54      0x110 All_MegaRf_Atmega256rfr2_8Mhz_Gcc/Obj/sysDuplicateTable.o
                0x00005f54                SYS_DuplicateTableCheck
 .text.SYS_InitZsiLayer
                0x00006064        0x4 All_MegaRf_Atmega256rfr2_8Mhz_Gcc/Obj/sysInit.o
                0x00006064                SYS_InitZsiLayer
 .text.SYS_InitZclLayer
                0x00006068        0x2 All_MegaRf_Atmega256rfr2_8Mhz_Gcc/Obj/sysInit.o
                0x00006068                SYS_InitZclLayer
 .text.processManagerTask
                0x0000606a       0x88 All_MegaRf_Atmega256rfr2_8Mhz_Gcc/Obj/sysTaskManager.o
 .text.SYS_SysInit
                0x000060f2       0x2c All_MegaRf_Atmega256rfr2_8Mhz_Gcc/Obj/sysTaskManager.o
                0x000060f2                SYS_SysInit
 .text.SYS_RunTask
                0x0000611e       0x2a All_MegaRf_Atmega256rfr2_8Mhz_Gcc/Obj/sysTaskManager.o
                0x0000611e                SYS_RunTask
 .text.SYS_ForceRunTask
                0x00006148        0x4 All_MegaRf_Atmega256rfr2_8Mhz_Gcc/Obj/sysTaskManager.o
                0x00006148                SYS_ForceRunTask
 .text.SYS_StartTimer
                0x0000614c       0x14 All_MegaRf_Atmega256rfr2_8Mhz_Gcc/Obj/sysTimer.o
                0x0000614c                SYS_StartTimer
 .text.SYS_StopTimer
                0x00006160       0x12 All_MegaRf_Atmega256rfr2_8Mhz_Gcc/Obj/sysTimer.o
                0x00006160                SYS_StopTimer
 .text.SYS_InitTimer
                0x00006172       0x3e All_MegaRf_Atmega256rfr2_8Mhz_Gcc/Obj/sysTimer.o
                0x00006172                SYS_InitTimer
 .text.BSP_TaskHandler
                0x000061b0        0x2 All_MegaRf_Atmega256rfr2_8Mhz_Gcc/Obj/bspTaskManager.o
                0x000061b0                BSP_TaskHandler
 .text.BSP_OnLed
                0x000061b2       0x18 All_MegaRf_Atmega256rfr2_8Mhz_Gcc/Obj/leds.o
                0x000061b2                BSP_OnLed
 .text.BSP_OffLed
                0x000061ca       0x18 All_MegaRf_Atmega256rfr2_8Mhz_Gcc/Obj/leds.o
                0x000061ca                BSP_OffLed
 .text.BSP_OpenLeds
                0x000061e2       0x14 All_MegaRf_Atmega256rfr2_8Mhz_Gcc/Obj/leds.o
                0x000061e2                BSP_OpenLeds
 .text.csSetToDefault
                0x000061f6       0x82 All_MegaRf_Atmega256rfr2_8Mhz_Gcc/Obj/csMem.o
                0x000061f6                csSetToDefault
 .text.csGetItem
                0x00006278       0x84 All_MegaRf_Atmega256rfr2_8Mhz_Gcc/Obj/configServer.o
 .text.CS_Init  0x000062fc        0x6 All_MegaRf_Atmega256rfr2_8Mhz_Gcc/Obj/configServer.o
                0x000062fc                CS_Init
 .text.CS_GetMemory
                0x00006302       0x44 All_MegaRf_Atmega256rfr2_8Mhz_Gcc/Obj/configServer.o
                0x00006302                CS_GetMemory
 .text.CS_ReadParameter
                0x00006346       0x70 All_MegaRf_Atmega256rfr2_8Mhz_Gcc/Obj/configServer.o
                0x00006346                CS_ReadParameter
 .text.CS_WriteParameter
                0x000063b6       0x52 All_MegaRf_Atmega256rfr2_8Mhz_Gcc/Obj/configServer.o
                0x000063b6                CS_WriteParameter
 .text.apsIsFragmentationDataReq
                0x00006408       0x34 ../../../../BitCloud/lib/libBc_All_Atmega256rfr2_Atmega256rfr2_Gcc.a(aps.o)
 .text.apsPostTask
                0x0000643c       0x30 ../../../../BitCloud/lib/libBc_All_Atmega256rfr2_Atmega256rfr2_Gcc.a(aps.o)
 .text.apsFreeBuffer
                0x0000646c       0xce ../../../../BitCloud/lib/libBc_All_Atmega256rfr2_Atmega256rfr2_Gcc.a(aps.o)
 .text.apsMakeNwkDataResp
                0x0000653a       0x2e ../../../../BitCloud/lib/libBc_All_Atmega256rfr2_Atmega256rfr2_Gcc.a(aps.o)
 .text.apsGetBuffer
                0x00006568      0x10c ../../../../BitCloud/lib/libBc_All_Atmega256rfr2_Atmega256rfr2_Gcc.a(aps.o)
 .text.apsDataManagerNwkDataConf
                0x00006674       0x16 ../../../../BitCloud/lib/libBc_All_Atmega256rfr2_Atmega256rfr2_Gcc.a(aps.o)
 .text.apsProcessEvent
                0x0000668a       0x50 ../../../../BitCloud/lib/libBc_All_Atmega256rfr2_Atmega256rfr2_Gcc.a(aps.o)
 .text.dataIndAddrResolvingConf
                0x000066da       0x10 ../../../../BitCloud/lib/libBc_All_Atmega256rfr2_Atmega256rfr2_Gcc.a(aps.o)
 .text.dataReqAddrResolvingConf
                0x000066ea       0x10 ../../../../BitCloud/lib/libBc_All_Atmega256rfr2_Atmega256rfr2_Gcc.a(aps.o)
 .text.apsSendNwkDataReq
                0x000066fa        0xe ../../../../BitCloud/lib/libBc_All_Atmega256rfr2_Atmega256rfr2_Gcc.a(aps.o)
 .text.apsProcessShortAddrModeDataReq
                0x00006708      0x286 ../../../../BitCloud/lib/libBc_All_Atmega256rfr2_Atmega256rfr2_Gcc.a(aps.o)
 .text.apsSendNextBlock
                0x0000698e       0x10 ../../../../BitCloud/lib/libBc_All_Atmega256rfr2_Atmega256rfr2_Gcc.a(aps.o)
 .text.apsSendAckForFragmentedReceive
                0x0000699e       0xc8 ../../../../BitCloud/lib/libBc_All_Atmega256rfr2_Atmega256rfr2_Gcc.a(aps.o)
 .text.apsCalculateApsAckTimeout
                0x00006a66       0x4a ../../../../BitCloud/lib/libBc_All_Atmega256rfr2_Atmega256rfr2_Gcc.a(aps.o)
 .text.apsGroupNwkDataConf
                0x00006ab0       0x4e ../../../../BitCloud/lib/libBc_All_Atmega256rfr2_Atmega256rfr2_Gcc.a(aps.o)
 .text.apsResetMemoryManager
                0x00006afe       0xe6 ../../../../BitCloud/lib/libBc_All_Atmega256rfr2_Atmega256rfr2_Gcc.a(aps.o)
 .text.apsResetBindingTable
                0x00006be4       0x54 ../../../../BitCloud/lib/libBc_All_Atmega256rfr2_Atmega256rfr2_Gcc.a(aps.o)
 .text.apsStopConf
                0x00006c38       0x52 ../../../../BitCloud/lib/libBc_All_Atmega256rfr2_Atmega256rfr2_Gcc.a(aps.o)
 .text.apsStartAckTimer
                0x00006c8a      0x1e6 ../../../../BitCloud/lib/libBc_All_Atmega256rfr2_Atmega256rfr2_Gcc.a(aps.o)
 .text.apsAckForFragmentedReceiveConfirmHandler
                0x00006e70       0xa2 ../../../../BitCloud/lib/libBc_All_Atmega256rfr2_Atmega256rfr2_Gcc.a(aps.o)
 .text.apsAckOnTimerFired
                0x00006f12      0x166 ../../../../BitCloud/lib/libBc_All_Atmega256rfr2_Atmega256rfr2_Gcc.a(aps.o)
 .text.apsFindBindingEntry
                0x00007078      0x106 ../../../../BitCloud/lib/libBc_All_Atmega256rfr2_Atmega256rfr2_Gcc.a(aps.o)
 .text.apsIsValidBindingParameters
                0x0000717e       0x7e ../../../../BitCloud/lib/libBc_All_Atmega256rfr2_Atmega256rfr2_Gcc.a(aps.o)
 .text.apsMakeApsDataConf
                0x000071fc       0x68 ../../../../BitCloud/lib/libBc_All_Atmega256rfr2_Atmega256rfr2_Gcc.a(aps.o)
 .text.apsGetAckByDataBuffer.isra.5
                0x00007264       0x82 ../../../../BitCloud/lib/libBc_All_Atmega256rfr2_Atmega256rfr2_Gcc.a(aps.o)
 .text.apsProcessGroupAddrModeDataReq
                0x000072e6      0x1ac ../../../../BitCloud/lib/libBc_All_Atmega256rfr2_Atmega256rfr2_Gcc.a(aps.o)
 .text.apsPrepareFragmentedTransmission
                0x00007492       0x74 ../../../../BitCloud/lib/libBc_All_Atmega256rfr2_Atmega256rfr2_Gcc.a(aps.o)
 .text.apsNextBind
                0x00007506       0xc0 ../../../../BitCloud/lib/libBc_All_Atmega256rfr2_Atmega256rfr2_Gcc.a(aps.o)
 .text.apsSendToNextBoundDevice
                0x000075c6      0x140 ../../../../BitCloud/lib/libBc_All_Atmega256rfr2_Atmega256rfr2_Gcc.a(aps.o)
 .text.bindDataReqAddrResolvingConf
                0x00007706       0x7e ../../../../BitCloud/lib/libBc_All_Atmega256rfr2_Atmega256rfr2_Gcc.a(aps.o)
                0x00007706                bindDataReqAddrResolvingConf
 .text.apsProcessIndirectDataReq
                0x00007784       0x6c ../../../../BitCloud/lib/libBc_All_Atmega256rfr2_Atmega256rfr2_Gcc.a(aps.o)
 .text.apsHandleTransmittedData.constprop.13
                0x000077f0       0xc2 ../../../../BitCloud/lib/libBc_All_Atmega256rfr2_Atmega256rfr2_Gcc.a(aps.o)
 .text.APS_BindReq
                0x000078b2       0xbc ../../../../BitCloud/lib/libBc_All_Atmega256rfr2_Atmega256rfr2_Gcc.a(aps.o)
                0x000078b2                APS_BindReq
 .text.APS_FreeBindingEntry
                0x0000796e       0x64 ../../../../BitCloud/lib/libBc_All_Atmega256rfr2_Atmega256rfr2_Gcc.a(aps.o)
                0x0000796e                APS_FreeBindingEntry
 .text.APS_UnbindReq
                0x000079d2       0x28 ../../../../BitCloud/lib/libBc_All_Atmega256rfr2_Atmega256rfr2_Gcc.a(aps.o)
                0x000079d2                APS_UnbindReq
 .text.APS_NextBindingEntry
                0x000079fa       0x40 ../../../../BitCloud/lib/libBc_All_Atmega256rfr2_Atmega256rfr2_Gcc.a(aps.o)
                0x000079fa                APS_NextBindingEntry
 .text.APS_DataReq
                0x00007a3a       0x20 ../../../../BitCloud/lib/libBc_All_Atmega256rfr2_Atmega256rfr2_Gcc.a(aps.o)
                0x00007a3a                APS_DataReq
 .text.NWK_DataInd
                0x00007a5a       0x20 ../../../../BitCloud/lib/libBc_All_Atmega256rfr2_Atmega256rfr2_Gcc.a(aps.o)
                0x00007a5a                NWK_DataInd
 .text.APS_CalculateTimes
                0x00007a7a      0x1ca ../../../../BitCloud/lib/libBc_All_Atmega256rfr2_Atmega256rfr2_Gcc.a(aps.o)
                0x00007a7a                APS_CalculateTimes
 .text.apsResetDataManager
                0x00007c44       0xee ../../../../BitCloud/lib/libBc_All_Atmega256rfr2_Atmega256rfr2_Gcc.a(aps.o)
 .text.apsNwkResetConf
                0x00007d32      0x214 ../../../../BitCloud/lib/libBc_All_Atmega256rfr2_Atmega256rfr2_Gcc.a(aps.o)
 .text.apsStateMachineTaskHandler
                0x00007f46      0x120 ../../../../BitCloud/lib/libBc_All_Atmega256rfr2_Atmega256rfr2_Gcc.a(aps.o)
 .text.APS_IsProfileIdMatched
                0x00008066       0x74 ../../../../BitCloud/lib/libBc_All_Atmega256rfr2_Atmega256rfr2_Gcc.a(aps.o)
                0x00008066                APS_IsProfileIdMatched
 .text.APS_NextEndpoint
                0x000080da       0x16 ../../../../BitCloud/lib/libBc_All_Atmega256rfr2_Atmega256rfr2_Gcc.a(aps.o)
                0x000080da                APS_NextEndpoint
 .text.apsFindEndpoint
                0x000080f0       0x28 ../../../../BitCloud/lib/libBc_All_Atmega256rfr2_Atmega256rfr2_Gcc.a(aps.o)
 .text.apsGroupIndication
                0x00008118       0xa6 ../../../../BitCloud/lib/libBc_All_Atmega256rfr2_Atmega256rfr2_Gcc.a(aps.o)
 .text.apsUnicastDataInd
                0x000081be      0x26a ../../../../BitCloud/lib/libBc_All_Atmega256rfr2_Atmega256rfr2_Gcc.a(aps.o)
 .text.apsApduUnicastHandler.constprop.11
                0x00008428      0x596 ../../../../BitCloud/lib/libBc_All_Atmega256rfr2_Atmega256rfr2_Gcc.a(aps.o)
 .text.apsDataTaskHandler
                0x000089be      0xc04 ../../../../BitCloud/lib/libBc_All_Atmega256rfr2_Atmega256rfr2_Gcc.a(aps.o)
 .text.NWK_IntrpDataInd
                0x000095c2      0x12e ../../../../BitCloud/lib/libBc_All_Atmega256rfr2_Atmega256rfr2_Gcc.a(aps.o)
                0x000095c2                NWK_IntrpDataInd
 .text.APS_Init
                0x000096f0       0x2c ../../../../BitCloud/lib/libBc_All_Atmega256rfr2_Atmega256rfr2_Gcc.a(aps.o)
                0x000096f0                APS_Init
 .text.APS_ResetReq
                0x0000971c       0x40 ../../../../BitCloud/lib/libBc_All_Atmega256rfr2_Atmega256rfr2_Gcc.a(aps.o)
                0x0000971c                APS_ResetReq
 .text.APS_StartReq
                0x0000975c       0x1e ../../../../BitCloud/lib/libBc_All_Atmega256rfr2_Atmega256rfr2_Gcc.a(aps.o)
                0x0000975c                APS_StartReq
 .text.APS_StopReq
                0x0000977a       0x1e ../../../../BitCloud/lib/libBc_All_Atmega256rfr2_Atmega256rfr2_Gcc.a(aps.o)
                0x0000977a                APS_StopReq
 .text.APS_IsActiveTransaction
                0x00009798       0x7a ../../../../BitCloud/lib/libBc_All_Atmega256rfr2_Atmega256rfr2_Gcc.a(aps.o)
                0x00009798                APS_IsActiveTransaction
 .text.isApsBusyOrPollCheck
                0x00009812       0x60 ../../../../BitCloud/lib/libBc_All_Atmega256rfr2_Atmega256rfr2_Gcc.a(aps.o)
 .text.APS_HandleLeave
                0x00009872        0xc ../../../../BitCloud/lib/libBc_All_Atmega256rfr2_Atmega256rfr2_Gcc.a(aps.o)
                0x00009872                APS_HandleLeave
 .text.APS_TaskHandler
                0x0000987e       0xb4 ../../../../BitCloud/lib/libBc_All_Atmega256rfr2_Atmega256rfr2_Gcc.a(aps.o)
                0x0000987e                APS_TaskHandler
 .text.getSymbolsPerOctet
                0x00009932       0x30 ../../../../BitCloud/lib/libBc_All_Atmega256rfr2_Atmega256rfr2_Gcc.a(macenvPib.o)
 .text.storeTransmitPower
                0x00009962       0x44 ../../../../BitCloud/lib/libBc_All_Atmega256rfr2_Atmega256rfr2_Gcc.a(macenvPib.o)
 .text.calculateMaxFrameDuration
                0x000099a6       0x1c ../../../../BitCloud/lib/libBc_All_Atmega256rfr2_Atmega256rfr2_Gcc.a(macenvPib.o)
 .text.macenvGetPhySymbolDuration
                0x000099c2       0x46 ../../../../BitCloud/lib/libBc_All_Atmega256rfr2_Atmega256rfr2_Gcc.a(macenvPib.o)
                0x000099c2                macenvGetPhySymbolDuration
 .text.macenvConvertTransPersistTimeFromUnitsToMs
                0x00009a08       0x36 ../../../../BitCloud/lib/libBc_All_Atmega256rfr2_Atmega256rfr2_Gcc.a(macenvPib.o)
                0x00009a08                macenvConvertTransPersistTimeFromUnitsToMs
 .text.updateMaxFrameTxTime
                0x00009a3e       0x34 ../../../../BitCloud/lib/libBc_All_Atmega256rfr2_Atmega256rfr2_Gcc.a(macenvPib.o)
 .text.macenvResetPib
                0x00009a72      0x10e ../../../../BitCloud/lib/libBc_All_Atmega256rfr2_Atmega256rfr2_Gcc.a(macenvPib.o)
                0x00009a72                macenvResetPib
 .text.macenvSetPibAttr
                0x00009b80      0x26a ../../../../BitCloud/lib/libBc_All_Atmega256rfr2_Atmega256rfr2_Gcc.a(macenvPib.o)
                0x00009b80                macenvSetPibAttr
 .text.macenvCalculateMaxFrameTotalWaitTimeInMs
                0x00009dea      0x12a ../../../../BitCloud/lib/libBc_All_Atmega256rfr2_Atmega256rfr2_Gcc.a(macenvPib.o)
                0x00009dea                macenvCalculateMaxFrameTotalWaitTimeInMs
 .text.macenvCalculateResponceWaitTimeInMs
                0x00009f14       0x30 ../../../../BitCloud/lib/libBc_All_Atmega256rfr2_Atmega256rfr2_Gcc.a(macenvPib.o)
                0x00009f14                macenvCalculateResponceWaitTimeInMs
 .text.macenvGetPibAttr
                0x00009f44      0x1de ../../../../BitCloud/lib/libBc_All_Atmega256rfr2_Atmega256rfr2_Gcc.a(macenvPib.o)
                0x00009f44                macenvGetPibAttr
 .text.MAC_GetExtAddr
                0x0000a122        0x6 ../../../../BitCloud/lib/libBc_All_Atmega256rfr2_Atmega256rfr2_Gcc.a(macenvPib.o)
                0x0000a122                MAC_GetExtAddr
 .text.MAC_IsOwnExtAddr
                0x0000a128       0x1a ../../../../BitCloud/lib/libBc_All_Atmega256rfr2_Atmega256rfr2_Gcc.a(macenvPib.o)
                0x0000a128                MAC_IsOwnExtAddr
 .text.MAC_GetOctetsTransmissionTimeInMs
                0x0000a142       0x48 ../../../../BitCloud/lib/libBc_All_Atmega256rfr2_Atmega256rfr2_Gcc.a(macenvPib.o)
                0x0000a142                MAC_GetOctetsTransmissionTimeInMs
 .text.postNewMacRequest
                0x0000a18a       0x46 ../../../../BitCloud/lib/libBc_All_Atmega256rfr2_Atmega256rfr2_Gcc.a(machwdManager.o)
 .text.putReqInQueue
                0x0000a1d0       0x16 ../../../../BitCloud/lib/libBc_All_Atmega256rfr2_Atmega256rfr2_Gcc.a(machwdManager.o)
 .text.MACHWD_DataReq
                0x0000a1e6        0x6 ../../../../BitCloud/lib/libBc_All_Atmega256rfr2_Atmega256rfr2_Gcc.a(machwdManager.o)
                0x0000a1e6                MACHWD_DataReq
 .text.MACHWD_SetTrxStateReq
                0x0000a1ec        0x8 ../../../../BitCloud/lib/libBc_All_Atmega256rfr2_Atmega256rfr2_Gcc.a(machwdManager.o)
                0x0000a1ec                MACHWD_SetTrxStateReq
 .text.MACHWD_SetReq
                0x0000a1f4        0x8 ../../../../BitCloud/lib/libBc_All_Atmega256rfr2_Atmega256rfr2_Gcc.a(machwdManager.o)
                0x0000a1f4                MACHWD_SetReq
 .text.MACHWD_EdReq
                0x0000a1fc        0x8 ../../../../BitCloud/lib/libBc_All_Atmega256rfr2_Atmega256rfr2_Gcc.a(machwdManager.o)
                0x0000a1fc                MACHWD_EdReq
 .text.RF_RandomReq
                0x0000a204       0x10 ../../../../BitCloud/lib/libBc_All_Atmega256rfr2_Atmega256rfr2_Gcc.a(machwdManager.o)
                0x0000a204                RF_RandomReq
 .text.MACHWD_Reset
                0x0000a214       0x44 ../../../../BitCloud/lib/libBc_All_Atmega256rfr2_Atmega256rfr2_Gcc.a(machwdManager.o)
                0x0000a214                MACHWD_Reset
 .text.MAC_PHY_HWD_TaskHandler
                0x0000a258      0x1de ../../../../BitCloud/lib/libBc_All_Atmega256rfr2_Atmega256rfr2_Gcc.a(machwdManager.o)
                0x0000a258                MAC_PHY_HWD_TaskHandler
 .text.machwdRegAccessReqHandler
                0x0000a436       0x62 ../../../../BitCloud/lib/libBc_All_Atmega256rfr2_Atmega256rfr2_Gcc.a(machwdRegAccessHandler.o)
                0x0000a436                machwdRegAccessReqHandler
 .text.machwdRegAccessTaskHandler
                0x0000a498       0x46 ../../../../BitCloud/lib/libBc_All_Atmega256rfr2_Atmega256rfr2_Gcc.a(machwdRegAccessHandler.o)
                0x0000a498                machwdRegAccessTaskHandler
 .text.machwdReset
                0x0000a4de       0xa8 ../../../../BitCloud/lib/libBc_All_Atmega256rfr2_Atmega256rfr2_Gcc.a(machwdResetHandler.o)
                0x0000a4de                machwdReset
 .text.machwdRndReqHandler
                0x0000a586       0x38 ../../../../BitCloud/lib/libBc_All_Atmega256rfr2_Atmega256rfr2_Gcc.a(machwdRndHandler.o)
                0x0000a586                machwdRndReqHandler
 .text.machwdRndTaskHandler
                0x0000a5be       0x32 ../../../../BitCloud/lib/libBc_All_Atmega256rfr2_Atmega256rfr2_Gcc.a(machwdRndHandler.o)
                0x0000a5be                machwdRndTaskHandler
 .text.machwdResetRndHandler
                0x0000a5f0        0x6 ../../../../BitCloud/lib/libBc_All_Atmega256rfr2_Atmega256rfr2_Gcc.a(machwdRndHandler.o)
                0x0000a5f0                machwdResetRndHandler
 .text.machwdResetRxBuffers
                0x0000a5f6       0xb8 ../../../../BitCloud/lib/libBc_All_Atmega256rfr2_Atmega256rfr2_Gcc.a(machwdRxBuffer.o)
                0x0000a5f6                machwdResetRxBuffers
 .text.machwdNextBuffer
                0x0000a6ae       0x14 ../../../../BitCloud/lib/libBc_All_Atmega256rfr2_Atmega256rfr2_Gcc.a(machwdRxBuffer.o)
                0x0000a6ae                machwdNextBuffer
 .text.machwdReleaseBuffer
                0x0000a6c2       0x4a ../../../../BitCloud/lib/libBc_All_Atmega256rfr2_Atmega256rfr2_Gcc.a(machwdRxBuffer.o)
                0x0000a6c2                machwdReleaseBuffer
 .text.machwdNextBufferPresent
                0x0000a70c       0x26 ../../../../BitCloud/lib/libBc_All_Atmega256rfr2_Atmega256rfr2_Gcc.a(machwdRxBuffer.o)
                0x0000a70c                machwdNextBufferPresent
 .text.checkRxBuffer
                0x0000a732       0x8e ../../../../BitCloud/lib/libBc_All_Atmega256rfr2_Atmega256rfr2_Gcc.a(machwdRxFrameHandler.o)
 .text.machwdPerformIndicationFromBuffer.part.1
                0x0000a7c0       0xc4 ../../../../BitCloud/lib/libBc_All_Atmega256rfr2_Atmega256rfr2_Gcc.a(machwdRxFrameHandler.o)
 .text.machwdDataReqIndTaskHandler
                0x0000a884       0x12 ../../../../BitCloud/lib/libBc_All_Atmega256rfr2_Atmega256rfr2_Gcc.a(machwdRxFrameHandler.o)
                0x0000a884                machwdDataReqIndTaskHandler
 .text.machwdRxFrameIndTaskHandler
                0x0000a896       0x12 ../../../../BitCloud/lib/libBc_All_Atmega256rfr2_Atmega256rfr2_Gcc.a(machwdRxFrameHandler.o)
                0x0000a896                machwdRxFrameIndTaskHandler
 .text.executeSetReq
                0x0000a8a8       0x6c ../../../../BitCloud/lib/libBc_All_Atmega256rfr2_Atmega256rfr2_Gcc.a(machwdSetHandler.o)
 .text.machwdSetReqHandler
                0x0000a914       0xd4 ../../../../BitCloud/lib/libBc_All_Atmega256rfr2_Atmega256rfr2_Gcc.a(machwdSetHandler.o)
                0x0000a914                machwdSetReqHandler
 .text.machwdSetTaskHandler
                0x0000a9e8       0x38 ../../../../BitCloud/lib/libBc_All_Atmega256rfr2_Atmega256rfr2_Gcc.a(machwdSetHandler.o)
                0x0000a9e8                machwdSetTaskHandler
 .text.machwdResetSetHandler
                0x0000aa20        0xe ../../../../BitCloud/lib/libBc_All_Atmega256rfr2_Atmega256rfr2_Gcc.a(machwdSetHandler.o)
                0x0000aa20                machwdResetSetHandler
 .text.machwdGetPhyTrxCmd
                0x0000aa2e       0x14 ../../../../BitCloud/lib/libBc_All_Atmega256rfr2_Atmega256rfr2_Gcc.a(machwdTrxCtrl.o)
                0x0000aa2e                machwdGetPhyTrxCmd
 .text.machwdSendTrxCmd
                0x0000aa42        0xa ../../../../BitCloud/lib/libBc_All_Atmega256rfr2_Atmega256rfr2_Gcc.a(machwdTrxCtrl.o)
                0x0000aa42                machwdSendTrxCmd
 .text.machwdConvertTrxCmdToTrxState
                0x0000aa4c       0x14 ../../../../BitCloud/lib/libBc_All_Atmega256rfr2_Atmega256rfr2_Gcc.a(machwdTrxCtrl.o)
                0x0000aa4c                machwdConvertTrxCmdToTrxState
 .text.machwdConvertTrxStateToTrxCmd
                0x0000aa60       0x16 ../../../../BitCloud/lib/libBc_All_Atmega256rfr2_Atmega256rfr2_Gcc.a(machwdTrxCtrl.o)
                0x0000aa60                machwdConvertTrxStateToTrxCmd
 .text.machwdTrxReqHandler
                0x0000aa76       0x3c ../../../../BitCloud/lib/libBc_All_Atmega256rfr2_Atmega256rfr2_Gcc.a(machwdTrxHandler.o)
                0x0000aa76                machwdTrxReqHandler
 .text.machwdTrxTaskHandler
                0x0000aab2       0x3e ../../../../BitCloud/lib/libBc_All_Atmega256rfr2_Atmega256rfr2_Gcc.a(machwdTrxHandler.o)
                0x0000aab2                machwdTrxTaskHandler
 .text.machwdResetTrxHandler
                0x0000aaf0        0x6 ../../../../BitCloud/lib/libBc_All_Atmega256rfr2_Atmega256rfr2_Gcc.a(machwdTrxHandler.o)
                0x0000aaf0                machwdResetTrxHandler
 .text.executeDataReq
                0x0000aaf6       0x28 ../../../../BitCloud/lib/libBc_All_Atmega256rfr2_Atmega256rfr2_Gcc.a(machwdTxFrameHandler.o)
 .text.machwdTxFrameReqHandler
                0x0000ab1e       0x5a ../../../../BitCloud/lib/libBc_All_Atmega256rfr2_Atmega256rfr2_Gcc.a(machwdTxFrameHandler.o)
                0x0000ab1e                machwdTxFrameReqHandler
 .text.machwdTxFrameTaskHandler
                0x0000ab78       0x76 ../../../../BitCloud/lib/libBc_All_Atmega256rfr2_Atmega256rfr2_Gcc.a(machwdTxFrameHandler.o)
                0x0000ab78                machwdTxFrameTaskHandler
 .text.machwdResetTxFrameHandler
                0x0000abee        0xa ../../../../BitCloud/lib/libBc_All_Atmega256rfr2_Atmega256rfr2_Gcc.a(machwdTxFrameHandler.o)
                0x0000abee                machwdResetTxFrameHandler
 .text.machwdTxRetryHandler
                0x0000abf8       0x4e ../../../../BitCloud/lib/libBc_All_Atmega256rfr2_Atmega256rfr2_Gcc.a(machwdTxFrameHandler.o)
                0x0000abf8                machwdTxRetryHandler
 .text.postponeAction.part.0
                0x0000ac46       0x1a ../../../../BitCloud/lib/libBc_All_Atmega256rfr2_Atmega256rfr2_Gcc.a(machwiManager.o)
 .text.putReqInQueue
                0x0000ac60       0x2c ../../../../BitCloud/lib/libBc_All_Atmega256rfr2_Atmega256rfr2_Gcc.a(machwiManager.o)
 .text.machwiSendConfToUpperLayer
                0x0000ac8c       0xf4 ../../../../BitCloud/lib/libBc_All_Atmega256rfr2_Atmega256rfr2_Gcc.a(machwiManager.o)
                0x0000ac8c                machwiSendConfToUpperLayer
 .text.MAC_HWI_TaskHandler
                0x0000ad80       0xec ../../../../BitCloud/lib/libBc_All_Atmega256rfr2_Atmega256rfr2_Gcc.a(machwiManager.o)
                0x0000ad80                MAC_HWI_TaskHandler
 .text.MAC_AssociateReq
                0x0000ae6c        0x8 ../../../../BitCloud/lib/libBc_All_Atmega256rfr2_Atmega256rfr2_Gcc.a(machwiManager.o)
                0x0000ae6c                MAC_AssociateReq
 .text.MAC_AssociateResp
                0x0000ae74        0x8 ../../../../BitCloud/lib/libBc_All_Atmega256rfr2_Atmega256rfr2_Gcc.a(machwiManager.o)
                0x0000ae74                MAC_AssociateResp
 .text.MAC_OrphanResp
                0x0000ae7c        0x8 ../../../../BitCloud/lib/libBc_All_Atmega256rfr2_Atmega256rfr2_Gcc.a(machwiManager.o)
                0x0000ae7c                MAC_OrphanResp
 .text.MAC_GetReq
                0x0000ae84        0x8 ../../../../BitCloud/lib/libBc_All_Atmega256rfr2_Atmega256rfr2_Gcc.a(machwiManager.o)
                0x0000ae84                MAC_GetReq
 .text.MAC_ResetReq
                0x0000ae8c       0x66 ../../../../BitCloud/lib/libBc_All_Atmega256rfr2_Atmega256rfr2_Gcc.a(machwiManager.o)
                0x0000ae8c                MAC_ResetReq
 .text.MAC_RxEnableReq
                0x0000aef2        0x8 ../../../../BitCloud/lib/libBc_All_Atmega256rfr2_Atmega256rfr2_Gcc.a(machwiManager.o)
                0x0000aef2                MAC_RxEnableReq
 .text.MAC_ScanReq
                0x0000aefa        0x8 ../../../../BitCloud/lib/libBc_All_Atmega256rfr2_Atmega256rfr2_Gcc.a(machwiManager.o)
                0x0000aefa                MAC_ScanReq
 .text.MAC_SetReq
                0x0000af02        0x8 ../../../../BitCloud/lib/libBc_All_Atmega256rfr2_Atmega256rfr2_Gcc.a(machwiManager.o)
                0x0000af02                MAC_SetReq
 .text.MAC_StartReq
                0x0000af0a        0x8 ../../../../BitCloud/lib/libBc_All_Atmega256rfr2_Atmega256rfr2_Gcc.a(machwiManager.o)
                0x0000af0a                MAC_StartReq
 .text.MAC_PollReq
                0x0000af12        0x8 ../../../../BitCloud/lib/libBc_All_Atmega256rfr2_Atmega256rfr2_Gcc.a(machwiManager.o)
                0x0000af12                MAC_PollReq
 .text.MAC_DataReq
                0x0000af1a        0x8 ../../../../BitCloud/lib/libBc_All_Atmega256rfr2_Atmega256rfr2_Gcc.a(machwiManager.o)
                0x0000af1a                MAC_DataReq
 .text.machwiSendAssociateInd
                0x0000af22        0xe ../../../../BitCloud/lib/libBc_All_Atmega256rfr2_Atmega256rfr2_Gcc.a(machwiManager.o)
                0x0000af22                machwiSendAssociateInd
 .text.machwiSendDataInd
                0x0000af30        0xe ../../../../BitCloud/lib/libBc_All_Atmega256rfr2_Atmega256rfr2_Gcc.a(machwiManager.o)
                0x0000af30                machwiSendDataInd
 .text.machwiSendBeaconNotifyInd
                0x0000af3e        0xe ../../../../BitCloud/lib/libBc_All_Atmega256rfr2_Atmega256rfr2_Gcc.a(machwiManager.o)
                0x0000af3e                machwiSendBeaconNotifyInd
 .text.machwiSendSyncLossNotifyInd
                0x0000af4c        0xe ../../../../BitCloud/lib/libBc_All_Atmega256rfr2_Atmega256rfr2_Gcc.a(machwiManager.o)
                0x0000af4c                machwiSendSyncLossNotifyInd
 .text.machwiSendOrphanInd
                0x0000af5a        0xe ../../../../BitCloud/lib/libBc_All_Atmega256rfr2_Atmega256rfr2_Gcc.a(machwiManager.o)
                0x0000af5a                machwiSendOrphanInd
 .text.machwiSendPollInd
                0x0000af68        0xe ../../../../BitCloud/lib/libBc_All_Atmega256rfr2_Atmega256rfr2_Gcc.a(machwiManager.o)
                0x0000af68                machwiSendPollInd
 .text.machwiTxTransactionReq
                0x0000af76       0x16 ../../../../BitCloud/lib/libBc_All_Atmega256rfr2_Atmega256rfr2_Gcc.a(machwiManager.o)
                0x0000af76                machwiTxTransactionReq
 .text.machwiTxBeaconReq
                0x0000af8c       0x16 ../../../../BitCloud/lib/libBc_All_Atmega256rfr2_Atmega256rfr2_Gcc.a(machwiManager.o)
                0x0000af8c                machwiTxBeaconReq
 .text.machwiTxEmptyDataFrameReq
                0x0000afa2       0x12 ../../../../BitCloud/lib/libBc_All_Atmega256rfr2_Atmega256rfr2_Gcc.a(machwiManager.o)
                0x0000afa2                machwiTxEmptyDataFrameReq
 .text.MAC_IsActiveTransaction
                0x0000afb4       0x18 ../../../../BitCloud/lib/libBc_All_Atmega256rfr2_Atmega256rfr2_Gcc.a(machwiManager.o)
                0x0000afb4                MAC_IsActiveTransaction
 .text.isMacBusyRequest
                0x0000afcc       0x1c ../../../../BitCloud/lib/libBc_All_Atmega256rfr2_Atmega256rfr2_Gcc.a(machwiManager.o)
 .text.machwdDataConfirm
                0x0000afe8       0x20 ../../../../BitCloud/lib/libBc_All_Atmega256rfr2_Atmega256rfr2_Gcc.a(machwiOrphanHandler.o)
 .text.machwiOrphanRespHandler
                0x0000b008      0x158 ../../../../BitCloud/lib/libBc_All_Atmega256rfr2_Atmega256rfr2_Gcc.a(machwiOrphanHandler.o)
                0x0000b008                machwiOrphanRespHandler
 .text.machwiOrphanNotificationInd
                0x0000b160       0x42 ../../../../BitCloud/lib/libBc_All_Atmega256rfr2_Atmega256rfr2_Gcc.a(machwiOrphanHandler.o)
                0x0000b160                machwiOrphanNotificationInd
 .text.MACHWD_DataInd
                0x0000b1a2       0xc0 ../../../../BitCloud/lib/libBc_All_Atmega256rfr2_Atmega256rfr2_Gcc.a(machwiPanServer.o)
                0x0000b1a2                MACHWD_DataInd
 .text.machwiEnableBeaconTransmission
                0x0000b262        0x8 ../../../../BitCloud/lib/libBc_All_Atmega256rfr2_Atmega256rfr2_Gcc.a(machwiPanServer.o)
                0x0000b262                machwiEnableBeaconTransmission
 .text.machwiResetPanServer
                0x0000b26a        0x6 ../../../../BitCloud/lib/libBc_All_Atmega256rfr2_Atmega256rfr2_Gcc.a(machwiPanServer.o)
                0x0000b26a                machwiResetPanServer
 .text.completeHandling
                0x0000b270       0x16 ../../../../BitCloud/lib/libBc_All_Atmega256rfr2_Atmega256rfr2_Gcc.a(machwiPollHandler.o)
 .text.halPollTimerFired
                0x0000b286        0x4 ../../../../BitCloud/lib/libBc_All_Atmega256rfr2_Atmega256rfr2_Gcc.a(machwiPollHandler.o)
 .text.switchingCompleted
                0x0000b28a       0x10 ../../../../BitCloud/lib/libBc_All_Atmega256rfr2_Atmega256rfr2_Gcc.a(machwiPollHandler.o)
 .text.machwdDataConfirmEmptyData
                0x0000b29a       0x1e ../../../../BitCloud/lib/libBc_All_Atmega256rfr2_Atmega256rfr2_Gcc.a(machwiPollHandler.o)
 .text.machwdDataConfirm
                0x0000b2b8       0x68 ../../../../BitCloud/lib/libBc_All_Atmega256rfr2_Atmega256rfr2_Gcc.a(machwiPollHandler.o)
 .text.machwiResetPollHandler
                0x0000b320        0x6 ../../../../BitCloud/lib/libBc_All_Atmega256rfr2_Atmega256rfr2_Gcc.a(machwiPollHandler.o)
                0x0000b320                machwiResetPollHandler
 .text.machwiPollInd
                0x0000b326       0x4e ../../../../BitCloud/lib/libBc_All_Atmega256rfr2_Atmega256rfr2_Gcc.a(machwiPollHandler.o)
                0x0000b326                machwiPollInd
 .text.machwiDataIndication
                0x0000b374      0x160 ../../../../BitCloud/lib/libBc_All_Atmega256rfr2_Atmega256rfr2_Gcc.a(machwiPollHandler.o)
                0x0000b374                machwiDataIndication
 .text.machwiPollReqHandler
                0x0000b4d4      0x118 ../../../../BitCloud/lib/libBc_All_Atmega256rfr2_Atmega256rfr2_Gcc.a(machwiPollHandler.o)
                0x0000b4d4                machwiPollReqHandler
 .text.machwiPollHandlerReplyWithEmptyDataFrame
                0x0000b5ec       0x8a ../../../../BitCloud/lib/libBc_All_Atmega256rfr2_Atmega256rfr2_Gcc.a(machwiPollHandler.o)
                0x0000b5ec                machwiPollHandlerReplyWithEmptyDataFrame
 .text.machwiPurgeReqHandler
                0x0000b676       0x2c ../../../../BitCloud/lib/libBc_All_Atmega256rfr2_Atmega256rfr2_Gcc.a(machwiPurgeHandler.o)
                0x0000b676                machwiPurgeReqHandler
 .text.machwdSetConfirm
                0x0000b6a2       0x1a ../../../../BitCloud/lib/libBc_All_Atmega256rfr2_Atmega256rfr2_Gcc.a(machwiResetHandler.o)
 .text.machwdSetTrxStateConfirm
                0x0000b6bc        0xa ../../../../BitCloud/lib/libBc_All_Atmega256rfr2_Atmega256rfr2_Gcc.a(machwiResetHandler.o)
 .text.machwiResetReqHandler
                0x0000b6c6       0x96 ../../../../BitCloud/lib/libBc_All_Atmega256rfr2_Atmega256rfr2_Gcc.a(machwiResetHandler.o)
                0x0000b6c6                machwiResetReqHandler
 .text.machwdSetTrxStateConfirm
                0x0000b75c        0xe ../../../../BitCloud/lib/libBc_All_Atmega256rfr2_Atmega256rfr2_Gcc.a(machwiRxEnableHandler.o)
 .text.machwiRxEnableReqHandler
                0x0000b76a       0x3a ../../../../BitCloud/lib/libBc_All_Atmega256rfr2_Atmega256rfr2_Gcc.a(machwiRxEnableHandler.o)
                0x0000b76a                machwiRxEnableReqHandler
 .text.switchToActiveChannel
                0x0000b7a4       0x2a ../../../../BitCloud/lib/libBc_All_Atmega256rfr2_Atmega256rfr2_Gcc.a(machwiScanHandler.o)
 .text.trxStateHandling
                0x0000b7ce       0x18 ../../../../BitCloud/lib/libBc_All_Atmega256rfr2_Atmega256rfr2_Gcc.a(machwiScanHandler.o)
 .text.finishScan
                0x0000b7e6       0x18 ../../../../BitCloud/lib/libBc_All_Atmega256rfr2_Atmega256rfr2_Gcc.a(machwiScanHandler.o)
 .text.setNextChannel
                0x0000b7fe       0x74 ../../../../BitCloud/lib/libBc_All_Atmega256rfr2_Atmega256rfr2_Gcc.a(machwiScanHandler.o)
 .text.machwdSetConfirm
                0x0000b872      0x2c4 ../../../../BitCloud/lib/libBc_All_Atmega256rfr2_Atmega256rfr2_Gcc.a(machwiScanHandler.o)
 .text.halScanTimerFired
                0x0000bb36       0x24 ../../../../BitCloud/lib/libBc_All_Atmega256rfr2_Atmega256rfr2_Gcc.a(machwiScanHandler.o)
 .text.machwdDataConfirm
                0x0000bb5a       0x6e ../../../../BitCloud/lib/libBc_All_Atmega256rfr2_Atmega256rfr2_Gcc.a(machwiScanHandler.o)
 .text.machwdEdConfirm
                0x0000bbc8       0xde ../../../../BitCloud/lib/libBc_All_Atmega256rfr2_Atmega256rfr2_Gcc.a(machwiScanHandler.o)
 .text.machwdSetTrxStateConfirm
                0x0000bca6       0xfa ../../../../BitCloud/lib/libBc_All_Atmega256rfr2_Atmega256rfr2_Gcc.a(machwiScanHandler.o)
 .text.machwiScanReqHandler
                0x0000bda0      0x18e ../../../../BitCloud/lib/libBc_All_Atmega256rfr2_Atmega256rfr2_Gcc.a(machwiScanHandler.o)
                0x0000bda0                machwiScanReqHandler
 .text.machwiBeaconInd
                0x0000bf2e      0x278 ../../../../BitCloud/lib/libBc_All_Atmega256rfr2_Atmega256rfr2_Gcc.a(machwiScanHandler.o)
                0x0000bf2e                machwiBeaconInd
 .text.machwiCoordRealignmentCommandInd
                0x0000c1a6      0x11c ../../../../BitCloud/lib/libBc_All_Atmega256rfr2_Atmega256rfr2_Gcc.a(machwiScanHandler.o)
                0x0000c1a6                machwiCoordRealignmentCommandInd
 .text.machwiResetScanHandler
                0x0000c2c2        0x6 ../../../../BitCloud/lib/libBc_All_Atmega256rfr2_Atmega256rfr2_Gcc.a(machwiScanHandler.o)
                0x0000c2c2                machwiResetScanHandler
 .text.machwdSetConfirm
                0x0000c2c8        0xc ../../../../BitCloud/lib/libBc_All_Atmega256rfr2_Atmega256rfr2_Gcc.a(machwiSetGetHandler.o)
 .text.machwiGetReqHandler
                0x0000c2d4       0x4c ../../../../BitCloud/lib/libBc_All_Atmega256rfr2_Atmega256rfr2_Gcc.a(machwiSetGetHandler.o)
                0x0000c2d4                machwiGetReqHandler
 .text.machwiSetReqHandler
                0x0000c320       0xcc ../../../../BitCloud/lib/libBc_All_Atmega256rfr2_Atmega256rfr2_Gcc.a(machwiSetGetHandler.o)
                0x0000c320                machwiSetReqHandler
 .text.setHandling
                0x0000c3ec       0x64 ../../../../BitCloud/lib/libBc_All_Atmega256rfr2_Atmega256rfr2_Gcc.a(machwiStartHandler.o)
 .text.setStartReqParam
                0x0000c450       0xa2 ../../../../BitCloud/lib/libBc_All_Atmega256rfr2_Atmega256rfr2_Gcc.a(machwiStartHandler.o)
 .text.generateConfirm
                0x0000c4f2       0x38 ../../../../BitCloud/lib/libBc_All_Atmega256rfr2_Atmega256rfr2_Gcc.a(machwiStartHandler.o)
 .text.machwdSetConfirm
                0x0000c52a      0x15e ../../../../BitCloud/lib/libBc_All_Atmega256rfr2_Atmega256rfr2_Gcc.a(machwiStartHandler.o)
 .text.machwdDataConfirm
                0x0000c688       0x32 ../../../../BitCloud/lib/libBc_All_Atmega256rfr2_Atmega256rfr2_Gcc.a(machwiStartHandler.o)
 .text.machwiStartReqHandler
                0x0000c6ba       0x3c ../../../../BitCloud/lib/libBc_All_Atmega256rfr2_Atmega256rfr2_Gcc.a(machwiStartHandler.o)
                0x0000c6ba                machwiStartReqHandler
 .text.machwiResetStartHandler
                0x0000c6f6        0xa ../../../../BitCloud/lib/libBc_All_Atmega256rfr2_Atmega256rfr2_Gcc.a(machwiStartHandler.o)
                0x0000c6f6                machwiResetStartHandler
 .text.machwdSetTrxStateConfirm
                0x0000c700        0xc ../../../../BitCloud/lib/libBc_All_Atmega256rfr2_Atmega256rfr2_Gcc.a(machwiSwitchRxCtrl.o)
 .text.machwiSwitchRxAccordToRxOnWhenIdle
                0x0000c70c       0x28 ../../../../BitCloud/lib/libBc_All_Atmega256rfr2_Atmega256rfr2_Gcc.a(machwiSwitchRxCtrl.o)
                0x0000c70c                machwiSwitchRxAccordToRxOnWhenIdle
 .text.machwiResetTransactionHandler
                0x0000c734        0xa ../../../../BitCloud/lib/libBc_All_Atmega256rfr2_Atmega256rfr2_Gcc.a(machwiTransactionHandler.o)
                0x0000c734                machwiResetTransactionHandler
 .text.machwiSendTransactionEvent
                0x0000c73e      0x190 ../../../../BitCloud/lib/libBc_All_Atmega256rfr2_Atmega256rfr2_Gcc.a(machwiTransactionHandler.o)
                0x0000c73e                machwiSendTransactionEvent
 .text.finishTransactionHandling
                0x0000c8ce       0xbe ../../../../BitCloud/lib/libBc_All_Atmega256rfr2_Atmega256rfr2_Gcc.a(machwiTransactionHandler.o)
 .text.machwdDataConfirm
                0x0000c98c       0x54 ../../../../BitCloud/lib/libBc_All_Atmega256rfr2_Atmega256rfr2_Gcc.a(machwiTransactionHandler.o)
 .text.transactionTimerFired
                0x0000c9e0       0x4e ../../../../BitCloud/lib/libBc_All_Atmega256rfr2_Atmega256rfr2_Gcc.a(machwiTransactionQueue.o)
 .text.machwiPutTransactionToQueue
                0x0000ca2e       0x60 ../../../../BitCloud/lib/libBc_All_Atmega256rfr2_Atmega256rfr2_Gcc.a(machwiTransactionQueue.o)
                0x0000ca2e                machwiPutTransactionToQueue
 .text.machwiGetActivatedTransactionFromQueue
                0x0000ca8e       0x1c ../../../../BitCloud/lib/libBc_All_Atmega256rfr2_Atmega256rfr2_Gcc.a(machwiTransactionQueue.o)
                0x0000ca8e                machwiGetActivatedTransactionFromQueue
 .text.machwiTestAndKickQueueTransactions
                0x0000caaa      0x1ea ../../../../BitCloud/lib/libBc_All_Atmega256rfr2_Atmega256rfr2_Gcc.a(machwiTransactionQueue.o)
                0x0000caaa                machwiTestAndKickQueueTransactions
 .text.machwiFillPendingAddrSpecAndList
                0x0000cc94        0xa ../../../../BitCloud/lib/libBc_All_Atmega256rfr2_Atmega256rfr2_Gcc.a(machwiTransactionQueue.o)
                0x0000cc94                machwiFillPendingAddrSpecAndList
 .text.machwiDeleteTransactionFromQueue
                0x0000cc9e       0x30 ../../../../BitCloud/lib/libBc_All_Atmega256rfr2_Atmega256rfr2_Gcc.a(machwiTransactionQueue.o)
                0x0000cc9e                machwiDeleteTransactionFromQueue
 .text.machwiPurgeTransactionFromQueue
                0x0000ccce       0x36 ../../../../BitCloud/lib/libBc_All_Atmega256rfr2_Atmega256rfr2_Gcc.a(machwiTransactionQueue.o)
                0x0000ccce                machwiPurgeTransactionFromQueue
 .text.machwiResetTransactionQueue
                0x0000cd04       0x60 ../../../../BitCloud/lib/libBc_All_Atmega256rfr2_Atmega256rfr2_Gcc.a(machwiTransactionQueue.o)
                0x0000cd04                machwiResetTransactionQueue
 .text.machwiTransactionQueueEmpty
                0x0000cd64       0x12 ../../../../BitCloud/lib/libBc_All_Atmega256rfr2_Atmega256rfr2_Gcc.a(machwiTransactionQueue.o)
                0x0000cd64                machwiTransactionQueueEmpty
 .text.nwkAddressConflictIsIdle
                0x0000cd76        0xe ../../../../BitCloud/lib/libBc_All_Atmega256rfr2_Atmega256rfr2_Gcc.a(nwk.o)
 .text.nwkFindAddressMapEntryByShortAddr
                0x0000cd84       0x32 ../../../../BitCloud/lib/libBc_All_Atmega256rfr2_Atmega256rfr2_Gcc.a(nwk.o)
 .text.unlikely.nwkClearBTR
                0x0000cdb6       0x44 ../../../../BitCloud/lib/libBc_All_Atmega256rfr2_Atmega256rfr2_Gcc.a(nwk.o)
 .text.nwkDataReqIsIdle
                0x0000cdfa        0xe ../../../../BitCloud/lib/libBc_All_Atmega256rfr2_Atmega256rfr2_Gcc.a(nwk.o)
 .text.nwkDiscoveryIsIdle
                0x0000ce08        0xe ../../../../BitCloud/lib/libBc_All_Atmega256rfr2_Atmega256rfr2_Gcc.a(nwk.o)
 .text.nwkEDScanIsIdle
                0x0000ce16        0xe ../../../../BitCloud/lib/libBc_All_Atmega256rfr2_Atmega256rfr2_Gcc.a(nwk.o)
 .text.nwkFormationIsIdle
                0x0000ce24        0xe ../../../../BitCloud/lib/libBc_All_Atmega256rfr2_Atmega256rfr2_Gcc.a(nwk.o)
 .text.unlikely.nwkParseHeader
                0x0000ce32       0x9e ../../../../BitCloud/lib/libBc_All_Atmega256rfr2_Atmega256rfr2_Gcc.a(nwk.o)
 .text.nwkJoinIndIsIdle
                0x0000ced0       0x32 ../../../../BitCloud/lib/libBc_All_Atmega256rfr2_Atmega256rfr2_Gcc.a(nwk.o)
 .text.nwkJoinReqIsIdle
                0x0000cf02        0xe ../../../../BitCloud/lib/libBc_All_Atmega256rfr2_Atmega256rfr2_Gcc.a(nwk.o)
 .text.nwkJoinComplete
                0x0000cf10        0x8 ../../../../BitCloud/lib/libBc_All_Atmega256rfr2_Atmega256rfr2_Gcc.a(nwk.o)
 .text.nwkLeaveReqIsIdle
                0x0000cf18        0xe ../../../../BitCloud/lib/libBc_All_Atmega256rfr2_Atmega256rfr2_Gcc.a(nwk.o)
 .text.nwkLinkStatusIsIdle
                0x0000cf26        0xe ../../../../BitCloud/lib/libBc_All_Atmega256rfr2_Atmega256rfr2_Gcc.a(nwk.o)
 .text.nwkLoopbackIsIdle
                0x0000cf34        0xe ../../../../BitCloud/lib/libBc_All_Atmega256rfr2_Atmega256rfr2_Gcc.a(nwk.o)
 .text.nwkNextSleepingChildForIndirectTx
                0x0000cf42       0x4a ../../../../BitCloud/lib/libBc_All_Atmega256rfr2_Atmega256rfr2_Gcc.a(nwk.o)
 .text.nwkGetOutgoingCost
                0x0000cf8c       0x40 ../../../../BitCloud/lib/libBc_All_Atmega256rfr2_Atmega256rfr2_Gcc.a(nwk.o)
 .text.nwkClearNeighborTable
                0x0000cfcc       0x64 ../../../../BitCloud/lib/libBc_All_Atmega256rfr2_Atmega256rfr2_Gcc.a(nwk.o)
 .text.nwkFreeNeighbor
                0x0000d030       0x24 ../../../../BitCloud/lib/libBc_All_Atmega256rfr2_Atmega256rfr2_Gcc.a(nwk.o)
 .text.nwkFindEndDeviceChild
                0x0000d054       0x3e ../../../../BitCloud/lib/libBc_All_Atmega256rfr2_Atmega256rfr2_Gcc.a(nwk.o)
 .text.nwkOrphanMacCommStatusInd
                0x0000d092        0x8 ../../../../BitCloud/lib/libBc_All_Atmega256rfr2_Atmega256rfr2_Gcc.a(nwk.o)
 .text.nwkFindPassiveAck
                0x0000d09a       0x2e ../../../../BitCloud/lib/libBc_All_Atmega256rfr2_Atmega256rfr2_Gcc.a(nwk.o)
 .text.nwkNewPassiveAck
                0x0000d0c8      0x104 ../../../../BitCloud/lib/libBc_All_Atmega256rfr2_Atmega256rfr2_Gcc.a(nwk.o)
 .text.nwkFreePassiveAck
                0x0000d1cc       0x22 ../../../../BitCloud/lib/libBc_All_Atmega256rfr2_Atmega256rfr2_Gcc.a(nwk.o)
 .text.nwkPermitJoiningIsIdle
                0x0000d1ee       0x10 ../../../../BitCloud/lib/libBc_All_Atmega256rfr2_Atmega256rfr2_Gcc.a(nwk.o)
 .text.nwkResetIsIdle
                0x0000d1fe        0xe ../../../../BitCloud/lib/libBc_All_Atmega256rfr2_Atmega256rfr2_Gcc.a(nwk.o)
 .text.nwkRouteDiscoveryIsIdle
                0x0000d20c       0x12 ../../../../BitCloud/lib/libBc_All_Atmega256rfr2_Atmega256rfr2_Gcc.a(nwk.o)
 .text.nwkFindRouteDiscoveryEntry
                0x0000d21e       0x38 ../../../../BitCloud/lib/libBc_All_Atmega256rfr2_Atmega256rfr2_Gcc.a(nwk.o)
 .text.nwkFreeRouteDiscoveryEntry
                0x0000d256       0x3a ../../../../BitCloud/lib/libBc_All_Atmega256rfr2_Atmega256rfr2_Gcc.a(nwk.o)
 .text.nwkConfirmRouteRequestTx
                0x0000d290       0x5a ../../../../BitCloud/lib/libBc_All_Atmega256rfr2_Atmega256rfr2_Gcc.a(nwk.o)
 .text.nwkRouteDiscoveryTableIsIdle
                0x0000d2ea        0xc ../../../../BitCloud/lib/libBc_All_Atmega256rfr2_Atmega256rfr2_Gcc.a(nwk.o)
 .text.nwkFindRoutingEntry
                0x0000d2f6       0x4a ../../../../BitCloud/lib/libBc_All_Atmega256rfr2_Atmega256rfr2_Gcc.a(nwk.o)
 .text.nwkFreeRoutingEntry
                0x0000d340       0x10 ../../../../BitCloud/lib/libBc_All_Atmega256rfr2_Atmega256rfr2_Gcc.a(nwk.o)
 .text.nwkUpdateNextHop
                0x0000d350       0xb6 ../../../../BitCloud/lib/libBc_All_Atmega256rfr2_Atmega256rfr2_Gcc.a(nwk.o)
 .text.nwkStartRouterIsIdle
                0x0000d406        0xe ../../../../BitCloud/lib/libBc_All_Atmega256rfr2_Atmega256rfr2_Gcc.a(nwk.o)
 .text.nwkSendRouteErrorConf
                0x0000d414        0x6 ../../../../BitCloud/lib/libBc_All_Atmega256rfr2_Atmega256rfr2_Gcc.a(nwk.o)
 .text.nwkSyncIsIdle
                0x0000d41a        0xe ../../../../BitCloud/lib/libBc_All_Atmega256rfr2_Atmega256rfr2_Gcc.a(nwk.o)
 .text.nwkPostTask
                0x0000d428       0x4c ../../../../BitCloud/lib/libBc_All_Atmega256rfr2_Atmega256rfr2_Gcc.a(nwk.o)
 .text.nwkStartRouterMacStartConf
                0x0000d474       0x18 ../../../../BitCloud/lib/libBc_All_Atmega256rfr2_Atmega256rfr2_Gcc.a(nwk.o)
 .text.nwkClearTaskBit
                0x0000d48c       0x2e ../../../../BitCloud/lib/libBc_All_Atmega256rfr2_Atmega256rfr2_Gcc.a(nwk.o)
 .text.nwkTxDelayIsIdle
                0x0000d4ba       0x12 ../../../../BitCloud/lib/libBc_All_Atmega256rfr2_Atmega256rfr2_Gcc.a(nwk.o)
 .text.nwkPermitJoinTimerFired
                0x0000d4cc       0x24 ../../../../BitCloud/lib/libBc_All_Atmega256rfr2_Atmega256rfr2_Gcc.a(nwk.o)
 .text.nwkStatusConf
                0x0000d4f0       0x2e ../../../../BitCloud/lib/libBc_All_Atmega256rfr2_Atmega256rfr2_Gcc.a(nwk.o)
 .text.nwkEDScanMacEDScanConf
                0x0000d51e       0x8e ../../../../BitCloud/lib/libBc_All_Atmega256rfr2_Atmega256rfr2_Gcc.a(nwk.o)
 .text.nwkFormationMacRxEnableConf
                0x0000d5ac       0x72 ../../../../BitCloud/lib/libBc_All_Atmega256rfr2_Atmega256rfr2_Gcc.a(nwk.o)
 .text.nwkDiscoveryMacActiveScanConf
                0x0000d61e       0x7e ../../../../BitCloud/lib/libBc_All_Atmega256rfr2_Atmega256rfr2_Gcc.a(nwk.o)
 .text.NWK_JoinConf
                0x0000d69c       0x7c ../../../../BitCloud/lib/libBc_All_Atmega256rfr2_Atmega256rfr2_Gcc.a(nwk.o)
 .text.nwkFindAddressMapEntryByExtAddr
                0x0000d718       0x52 ../../../../BitCloud/lib/libBc_All_Atmega256rfr2_Atmega256rfr2_Gcc.a(nwk.o)
 .text.nwkAddToAddressMap
                0x0000d76a      0x11a ../../../../BitCloud/lib/libBc_All_Atmega256rfr2_Atmega256rfr2_Gcc.a(nwk.o)
 .text.findFreeJoinIndObjFor
                0x0000d884       0xbc ../../../../BitCloud/lib/libBc_All_Atmega256rfr2_Atmega256rfr2_Gcc.a(nwk.o)
 .text.nwkTxReq
                0x0000d940        0xe ../../../../BitCloud/lib/libBc_All_Atmega256rfr2_Atmega256rfr2_Gcc.a(nwk.o)
 .text.nwkResetTaskManager
                0x0000d94e       0x18 ../../../../BitCloud/lib/libBc_All_Atmega256rfr2_Atmega256rfr2_Gcc.a(nwk.o)
 .text.getEnddeviceLifeTimeInMs
                0x0000d966       0x60 ../../../../BitCloud/lib/libBc_All_Atmega256rfr2_Atmega256rfr2_Gcc.a(nwk.o)
 .text.nwkSetLifeTimeOfNeighbor
                0x0000d9c6       0xa2 ../../../../BitCloud/lib/libBc_All_Atmega256rfr2_Atmega256rfr2_Gcc.a(nwk.o)
 .text.nwkAddBTTEntry
                0x0000da68      0x1c8 ../../../../BitCloud/lib/libBc_All_Atmega256rfr2_Atmega256rfr2_Gcc.a(nwk.o)
 .text.nwkAddOwnBTR
                0x0000dc30        0xc ../../../../BitCloud/lib/libBc_All_Atmega256rfr2_Atmega256rfr2_Gcc.a(nwk.o)
 .text.nwkPermitJoiningMacSetConf
                0x0000dc3c       0x52 ../../../../BitCloud/lib/libBc_All_Atmega256rfr2_Atmega256rfr2_Gcc.a(nwk.o)
 .text.nwkResetAddressMap
                0x0000dc8e       0x86 ../../../../BitCloud/lib/libBc_All_Atmega256rfr2_Atmega256rfr2_Gcc.a(nwk.o)
 .text.nwkStopLinkStatusTimer
                0x0000dd14        0xc ../../../../BitCloud/lib/libBc_All_Atmega256rfr2_Atmega256rfr2_Gcc.a(nwk.o)
 .text.nwkResetRouteDiscoveryTable
                0x0000dd20       0x98 ../../../../BitCloud/lib/libBc_All_Atmega256rfr2_Atmega256rfr2_Gcc.a(nwk.o)
 .text.nwkRouteDiscoveryTableTimerFired
                0x0000ddb8       0x54 ../../../../BitCloud/lib/libBc_All_Atmega256rfr2_Atmega256rfr2_Gcc.a(nwk.o)
 .text.nwkResetNeighborTable
                0x0000de0c       0x4e ../../../../BitCloud/lib/libBc_All_Atmega256rfr2_Atmega256rfr2_Gcc.a(nwk.o)
 .text.nwkAllocPacket
                0x0000de5a       0xb8 ../../../../BitCloud/lib/libBc_All_Atmega256rfr2_Atmega256rfr2_Gcc.a(nwk.o)
 .text.nwkAllocOutputPacket
                0x0000df12       0x56 ../../../../BitCloud/lib/libBc_All_Atmega256rfr2_Atmega256rfr2_Gcc.a(nwk.o)
 .text.nwkTryToProcessCommandReq
                0x0000df68       0x2a ../../../../BitCloud/lib/libBc_All_Atmega256rfr2_Atmega256rfr2_Gcc.a(nwk.o)
 .text.nwkCommandReq
                0x0000df92       0x54 ../../../../BitCloud/lib/libBc_All_Atmega256rfr2_Atmega256rfr2_Gcc.a(nwk.o)
 .text.nwkFreePacket
                0x0000dfe6       0x4e ../../../../BitCloud/lib/libBc_All_Atmega256rfr2_Atmega256rfr2_Gcc.a(nwk.o)
 .text.nwkAllocInputPacket
                0x0000e034       0x26 ../../../../BitCloud/lib/libBc_All_Atmega256rfr2_Atmega256rfr2_Gcc.a(nwk.o)
 .text.nwkStartLinkStatusTimer
                0x0000e05a        0xe ../../../../BitCloud/lib/libBc_All_Atmega256rfr2_Atmega256rfr2_Gcc.a(nwk.o)
 .text.nwkAllocRouteDiscoveryEntry
                0x0000e068       0x92 ../../../../BitCloud/lib/libBc_All_Atmega256rfr2_Atmega256rfr2_Gcc.a(nwk.o)
 .text.nwkStartAgeTimerOfNeighborTable
                0x0000e0fa       0x30 ../../../../BitCloud/lib/libBc_All_Atmega256rfr2_Atmega256rfr2_Gcc.a(nwk.o)
 .text.nwkFormationMacStartConf
                0x0000e12a       0x9e ../../../../BitCloud/lib/libBc_All_Atmega256rfr2_Atmega256rfr2_Gcc.a(nwk.o)
 .text.unlikely.nwkInitInputPacket
                0x0000e1c8       0xac ../../../../BitCloud/lib/libBc_All_Atmega256rfr2_Atmega256rfr2_Gcc.a(nwk.o)
 .text.nwkPerformMacDataReq
                0x0000e274       0x28 ../../../../BitCloud/lib/libBc_All_Atmega256rfr2_Atmega256rfr2_Gcc.a(nwk.o)
 .text.nwkConfirmLeaveItselfTx
                0x0000e29c       0x20 ../../../../BitCloud/lib/libBc_All_Atmega256rfr2_Atmega256rfr2_Gcc.a(nwk.o)
 .text.nwkConfirmNetworkStatusTx
                0x0000e2bc       0x6a ../../../../BitCloud/lib/libBc_All_Atmega256rfr2_Atmega256rfr2_Gcc.a(nwk.o)
 .text.nwkOrphanTaskHandler
                0x0000e326       0x6c ../../../../BitCloud/lib/libBc_All_Atmega256rfr2_Atmega256rfr2_Gcc.a(nwk.o)
 .text.nwkLoopbackTaskHandler
                0x0000e392      0x124 ../../../../BitCloud/lib/libBc_All_Atmega256rfr2_Atmega256rfr2_Gcc.a(nwk.o)
 .text.nwkDiscoveryTaskHandler
                0x0000e4b6       0xfe ../../../../BitCloud/lib/libBc_All_Atmega256rfr2_Atmega256rfr2_Gcc.a(nwk.o)
 .text.nwkDataConfTaskHandler
                0x0000e5b4       0xa2 ../../../../BitCloud/lib/libBc_All_Atmega256rfr2_Atmega256rfr2_Gcc.a(nwk.o)
 .text.nwkBroadcastForMe
                0x0000e656       0x50 ../../../../BitCloud/lib/libBc_All_Atmega256rfr2_Atmega256rfr2_Gcc.a(nwk.o)
 .text.nwkMacEventHandler
                0x0000e6a6       0x1a ../../../../BitCloud/lib/libBc_All_Atmega256rfr2_Atmega256rfr2_Gcc.a(nwk.o)
 .text.nwkIsJoiningForbidden
                0x0000e6c0       0x4c ../../../../BitCloud/lib/libBc_All_Atmega256rfr2_Atmega256rfr2_Gcc.a(nwk.o)
 .text.unlikely.nwkIsPassiveAckDone.isra.6
                0x0000e70c       0x9e ../../../../BitCloud/lib/libBc_All_Atmega256rfr2_Atmega256rfr2_Gcc.a(nwk.o)
 .text.nwkRouteDiscoveryTaskHandler
                0x0000e7aa      0x17c ../../../../BitCloud/lib/libBc_All_Atmega256rfr2_Atmega256rfr2_Gcc.a(nwk.o)
 .text.nwkOrphanConfirmRequest
                0x0000e926       0xb2 ../../../../BitCloud/lib/libBc_All_Atmega256rfr2_Atmega256rfr2_Gcc.a(nwk.o)
 .text.nwkOrphanMacScanConf
                0x0000e9d8       0x3c ../../../../BitCloud/lib/libBc_All_Atmega256rfr2_Atmega256rfr2_Gcc.a(nwk.o)
 .text.nwkDataConf
                0x0000ea14       0x56 ../../../../BitCloud/lib/libBc_All_Atmega256rfr2_Atmega256rfr2_Gcc.a(nwk.o)
 .text.nwkConfirmDataTx
                0x0000ea6a       0x34 ../../../../BitCloud/lib/libBc_All_Atmega256rfr2_Atmega256rfr2_Gcc.a(nwk.o)
 .text.freeJoinIndObj
                0x0000ea9e       0x3e ../../../../BitCloud/lib/libBc_All_Atmega256rfr2_Atmega256rfr2_Gcc.a(nwk.o)
 .text.nwkJoinIndTaskHandler
                0x0000eadc      0x152 ../../../../BitCloud/lib/libBc_All_Atmega256rfr2_Atmega256rfr2_Gcc.a(nwk.o)
 .text.NWK_NetworkDiscoveryConf.part.20
                0x0000ec2e       0x2e ../../../../BitCloud/lib/libBc_All_Atmega256rfr2_Atmega256rfr2_Gcc.a(nwk.o)
 .text.NWK_NetworkDiscoveryConf
                0x0000ec5c       0x22 ../../../../BitCloud/lib/libBc_All_Atmega256rfr2_Atmega256rfr2_Gcc.a(nwk.o)
 .text.nwkBTTTimerFired
                0x0000ec7e       0xbe ../../../../BitCloud/lib/libBc_All_Atmega256rfr2_Atmega256rfr2_Gcc.a(nwk.o)
 .text.nwkLinkStatusTimerFired
                0x0000ed3c       0x14 ../../../../BitCloud/lib/libBc_All_Atmega256rfr2_Atmega256rfr2_Gcc.a(nwk.o)
 .text.nwkConfirmLinkStatusTx
                0x0000ed50       0x8e ../../../../BitCloud/lib/libBc_All_Atmega256rfr2_Atmega256rfr2_Gcc.a(nwk.o)
 .text.nwkOrphanMacRxEnableConf
                0x0000edde       0x2a ../../../../BitCloud/lib/libBc_All_Atmega256rfr2_Atmega256rfr2_Gcc.a(nwk.o)
 .text.nwkSilentJoinConfirmRequest
                0x0000ee08       0x8e ../../../../BitCloud/lib/libBc_All_Atmega256rfr2_Atmega256rfr2_Gcc.a(nwk.o)
 .text.nwkSilentJoinMacSetConf
                0x0000ee96       0xf0 ../../../../BitCloud/lib/libBc_All_Atmega256rfr2_Atmega256rfr2_Gcc.a(nwk.o)
 .text.nwkSilentJoinMacRxEnableConf
                0x0000ef86       0x12 ../../../../BitCloud/lib/libBc_All_Atmega256rfr2_Atmega256rfr2_Gcc.a(nwk.o)
 .text.nwkResetTaskHandler
                0x0000ef98       0x5e ../../../../BitCloud/lib/libBc_All_Atmega256rfr2_Atmega256rfr2_Gcc.a(nwk.o)
 .text.nwkOrphanMacSetConf
                0x0000eff6       0xda ../../../../BitCloud/lib/libBc_All_Atmega256rfr2_Atmega256rfr2_Gcc.a(nwk.o)
 .text.nwkEDScanTaskHandler
                0x0000f0d0       0xf2 ../../../../BitCloud/lib/libBc_All_Atmega256rfr2_Atmega256rfr2_Gcc.a(nwk.o)
 .text.nwkStartRouterTaskHandler
                0x0000f1c2       0xc8 ../../../../BitCloud/lib/libBc_All_Atmega256rfr2_Atmega256rfr2_Gcc.a(nwk.o)
 .text.nwkSyncMacPollConf
                0x0000f28a       0x5a ../../../../BitCloud/lib/libBc_All_Atmega256rfr2_Atmega256rfr2_Gcc.a(nwk.o)
 .text.nwkRemoveItself.constprop.75
                0x0000f2e4       0x2a ../../../../BitCloud/lib/libBc_All_Atmega256rfr2_Atmega256rfr2_Gcc.a(nwk.o)
 .text.nwkPermitJoiningTaskHandler
                0x0000f30e      0x134 ../../../../BitCloud/lib/libBc_All_Atmega256rfr2_Atmega256rfr2_Gcc.a(nwk.o)
 .text.NWK_LeaveConf
                0x0000f442       0x4a ../../../../BitCloud/lib/libBc_All_Atmega256rfr2_Atmega256rfr2_Gcc.a(nwk.o)
 .text.nwkPrepareCommonFrame
                0x0000f48c       0x4a ../../../../BitCloud/lib/libBc_All_Atmega256rfr2_Atmega256rfr2_Gcc.a(nwk.o)
 .text.nwkPrepareLeaveChildTx
                0x0000f4d6       0xb0 ../../../../BitCloud/lib/libBc_All_Atmega256rfr2_Atmega256rfr2_Gcc.a(nwk.o)
 .text.nwkPrepareLeaveItselfTx
                0x0000f586       0x96 ../../../../BitCloud/lib/libBc_All_Atmega256rfr2_Atmega256rfr2_Gcc.a(nwk.o)
 .text.nwkPrepareJoinRespTx
                0x0000f61c       0xf6 ../../../../BitCloud/lib/libBc_All_Atmega256rfr2_Atmega256rfr2_Gcc.a(nwk.o)
 .text.nwkPrepareJoinReqTx
                0x0000f712       0x82 ../../../../BitCloud/lib/libBc_All_Atmega256rfr2_Atmega256rfr2_Gcc.a(nwk.o)
 .text.nwkPrepareLinkStatusTx
                0x0000f794      0x30a ../../../../BitCloud/lib/libBc_All_Atmega256rfr2_Atmega256rfr2_Gcc.a(nwk.o)
 .text.nwkStatusReq
                0x0000fa9e       0x42 ../../../../BitCloud/lib/libBc_All_Atmega256rfr2_Atmega256rfr2_Gcc.a(nwk.o)
 .text.nwkSendRouteErrorStatus.constprop.65
                0x0000fae0       0x3a ../../../../BitCloud/lib/libBc_All_Atmega256rfr2_Atmega256rfr2_Gcc.a(nwk.o)
 .text.nwkLinkFrameFragmentationTimerFired
                0x0000fb1a       0x22 ../../../../BitCloud/lib/libBc_All_Atmega256rfr2_Atmega256rfr2_Gcc.a(nwk.o)
 .text.nwkSyncTaskHandler
                0x0000fb3c       0xa6 ../../../../BitCloud/lib/libBc_All_Atmega256rfr2_Atmega256rfr2_Gcc.a(nwk.o)
 .text.nwkUpdateCapacityBits
                0x0000fbe2       0x62 ../../../../BitCloud/lib/libBc_All_Atmega256rfr2_Atmega256rfr2_Gcc.a(nwk.o)
 .text.nwkUpdateCapacityBitsInBeacon
                0x0000fc44       0x36 ../../../../BitCloud/lib/libBc_All_Atmega256rfr2_Atmega256rfr2_Gcc.a(nwk.o)
 .text.nwkUpdateBeaconPayload
                0x0000fc7a       0x88 ../../../../BitCloud/lib/libBc_All_Atmega256rfr2_Atmega256rfr2_Gcc.a(nwk.o)
 .text.nwkOrphanMacGetConf
                0x0000fd02       0x94 ../../../../BitCloud/lib/libBc_All_Atmega256rfr2_Atmega256rfr2_Gcc.a(nwk.o)
 .text.nwkFormationMacSetConf
                0x0000fd96      0x18c ../../../../BitCloud/lib/libBc_All_Atmega256rfr2_Atmega256rfr2_Gcc.a(nwk.o)
 .text.nwkReloadNibFromConfigServer
                0x0000ff22       0xf6 ../../../../BitCloud/lib/libBc_All_Atmega256rfr2_Atmega256rfr2_Gcc.a(nwk.o)
 .text.nwkSilentJoinTaskHandler
                0x00010018       0x70 ../../../../BitCloud/lib/libBc_All_Atmega256rfr2_Atmega256rfr2_Gcc.a(nwk.o)
 .text.nwkFormationTaskHandler
                0x00010088      0x202 ../../../../BitCloud/lib/libBc_All_Atmega256rfr2_Atmega256rfr2_Gcc.a(nwk.o)
 .text.nwkTxConf
                0x0001028a      0x1c4 ../../../../BitCloud/lib/libBc_All_Atmega256rfr2_Atmega256rfr2_Gcc.a(nwk.o)
 .text.nwkProcessDelayStatus
                0x0001044e      0x212 ../../../../BitCloud/lib/libBc_All_Atmega256rfr2_Atmega256rfr2_Gcc.a(nwk.o)
 .text.nwkTxDelayTimerFired
                0x00010660       0x80 ../../../../BitCloud/lib/libBc_All_Atmega256rfr2_Atmega256rfr2_Gcc.a(nwk.o)
 .text.nwkAddressConflictMacSetConf
                0x000106e0       0xc8 ../../../../BitCloud/lib/libBc_All_Atmega256rfr2_Atmega256rfr2_Gcc.a(nwk.o)
 .text.nwkRemoveAllChildren.constprop.73
                0x000107a8       0xbc ../../../../BitCloud/lib/libBc_All_Atmega256rfr2_Atmega256rfr2_Gcc.a(nwk.o)
 .text.nwkConfirmLeaveChildTx
                0x00010864       0x34 ../../../../BitCloud/lib/libBc_All_Atmega256rfr2_Atmega256rfr2_Gcc.a(nwk.o)
 .text.nwkFormationMacEDScanConf
                0x00010898      0x17a ../../../../BitCloud/lib/libBc_All_Atmega256rfr2_Atmega256rfr2_Gcc.a(nwk.o)
 .text.nwkFormationMacActiveScanConf
                0x00010a12      0x29e ../../../../BitCloud/lib/libBc_All_Atmega256rfr2_Atmega256rfr2_Gcc.a(nwk.o)
 .text.NWK_GetShortAddr
                0x00010cb0        0xa ../../../../BitCloud/lib/libBc_All_Atmega256rfr2_Atmega256rfr2_Gcc.a(nwk.o)
                0x00010cb0                NWK_GetShortAddr
 .text.NWK_IsStaticAddressingMode
                0x00010cba        0x6 ../../../../BitCloud/lib/libBc_All_Atmega256rfr2_Atmega256rfr2_Gcc.a(nwk.o)
                0x00010cba                NWK_IsStaticAddressingMode
 .text.NWK_RemoveFromAddressMap
                0x00010cc0       0x12 ../../../../BitCloud/lib/libBc_All_Atmega256rfr2_Atmega256rfr2_Gcc.a(nwk.o)
                0x00010cc0                NWK_RemoveFromAddressMap
 .text.NWK_NetworkDiscoveryReq
                0x00010cd2       0x40 ../../../../BitCloud/lib/libBc_All_Atmega256rfr2_Atmega256rfr2_Gcc.a(nwk.o)
                0x00010cd2                NWK_NetworkDiscoveryReq
 .text.nwkJoinReqTaskHandler
                0x00010d12      0x188 ../../../../BitCloud/lib/libBc_All_Atmega256rfr2_Atmega256rfr2_Gcc.a(nwk.o)
 .text.NWK_EDScanReq
                0x00010e9a       0x40 ../../../../BitCloud/lib/libBc_All_Atmega256rfr2_Atmega256rfr2_Gcc.a(nwk.o)
                0x00010e9a                NWK_EDScanReq
 .text.NWK_NetworkFormationReq
                0x00010eda       0x40 ../../../../BitCloud/lib/libBc_All_Atmega256rfr2_Atmega256rfr2_Gcc.a(nwk.o)
                0x00010eda                NWK_NetworkFormationReq
 .text.NWK_IsGroupMember
                0x00010f1a       0x50 ../../../../BitCloud/lib/libBc_All_Atmega256rfr2_Atmega256rfr2_Gcc.a(nwk.o)
                0x00010f1a                NWK_IsGroupMember
 .text.nwkRetransmitInputPacket
                0x00010f6a      0x152 ../../../../BitCloud/lib/libBc_All_Atmega256rfr2_Atmega256rfr2_Gcc.a(nwk.o)
 .text.unlikely.nwkRxRetransmit
                0x000110bc       0x90 ../../../../BitCloud/lib/libBc_All_Atmega256rfr2_Atmega256rfr2_Gcc.a(nwk.o)
 .text.NWK_DataResp
                0x0001114c       0x18 ../../../../BitCloud/lib/libBc_All_Atmega256rfr2_Atmega256rfr2_Gcc.a(nwk.o)
                0x0001114c                NWK_DataResp
 .text.NWK_ResetGroups
                0x00011164       0x56 ../../../../BitCloud/lib/libBc_All_Atmega256rfr2_Atmega256rfr2_Gcc.a(nwk.o)
                0x00011164                NWK_ResetGroups
 .text.nwkLeaveReqMacResetConf
                0x000111ba      0x11e ../../../../BitCloud/lib/libBc_All_Atmega256rfr2_Atmega256rfr2_Gcc.a(nwk.o)
 .text.nwkResetMacResetConf
                0x000112d8      0x4e8 ../../../../BitCloud/lib/libBc_All_Atmega256rfr2_Atmega256rfr2_Gcc.a(nwk.o)
 .text.NWK_GetParentShortAddr
                0x000117c0        0xa ../../../../BitCloud/lib/libBc_All_Atmega256rfr2_Atmega256rfr2_Gcc.a(nwk.o)
                0x000117c0                NWK_GetParentShortAddr
 .text.NWK_GetPanId
                0x000117ca        0xa ../../../../BitCloud/lib/libBc_All_Atmega256rfr2_Atmega256rfr2_Gcc.a(nwk.o)
                0x000117ca                NWK_GetPanId
 .text.NWK_GetExtPanId
                0x000117d4       0x16 ../../../../BitCloud/lib/libBc_All_Atmega256rfr2_Atmega256rfr2_Gcc.a(nwk.o)
                0x000117d4                NWK_GetExtPanId
 .text.NWK_SetExtPanId
                0x000117ea       0x28 ../../../../BitCloud/lib/libBc_All_Atmega256rfr2_Atmega256rfr2_Gcc.a(nwk.o)
                0x000117ea                NWK_SetExtPanId
 .text.NWK_GetDeviceType
                0x00011812        0x6 ../../../../BitCloud/lib/libBc_All_Atmega256rfr2_Atmega256rfr2_Gcc.a(nwk.o)
                0x00011812                NWK_GetDeviceType
 .text.NWK_GetLogicalChannel
                0x00011818        0x6 ../../../../BitCloud/lib/libBc_All_Atmega256rfr2_Atmega256rfr2_Gcc.a(nwk.o)
                0x00011818                NWK_GetLogicalChannel
 .text.NWK_SetLogicalChannel
                0x0001181e        0xe ../../../../BitCloud/lib/libBc_All_Atmega256rfr2_Atmega256rfr2_Gcc.a(nwk.o)
                0x0001181e                NWK_SetLogicalChannel
 .text.NWK_GetBroadcastDeliveryTime
                0x0001182c       0x12 ../../../../BitCloud/lib/libBc_All_Atmega256rfr2_Atmega256rfr2_Gcc.a(nwk.o)
                0x0001182c                NWK_GetBroadcastDeliveryTime
 .text.NWK_SetManagerAddr
                0x0001183e        0xa ../../../../BitCloud/lib/libBc_All_Atmega256rfr2_Atmega256rfr2_Gcc.a(nwk.o)
                0x0001183e                NWK_SetManagerAddr
 .text.NWK_SetUpdateId
                0x00011848       0x12 ../../../../BitCloud/lib/libBc_All_Atmega256rfr2_Atmega256rfr2_Gcc.a(nwk.o)
                0x00011848                NWK_SetUpdateId
 .text.NWK_GetTransmitCouner
                0x0001185a        0xa ../../../../BitCloud/lib/libBc_All_Atmega256rfr2_Atmega256rfr2_Gcc.a(nwk.o)
                0x0001185a                NWK_GetTransmitCouner
 .text.NWK_GetTransmitFailureCounter
                0x00011864        0xa ../../../../BitCloud/lib/libBc_All_Atmega256rfr2_Atmega256rfr2_Gcc.a(nwk.o)
                0x00011864                NWK_GetTransmitFailureCounter
 .text.NWK_ResetTransmitCounters
                0x0001186e       0x12 ../../../../BitCloud/lib/libBc_All_Atmega256rfr2_Atmega256rfr2_Gcc.a(nwk.o)
                0x0001186e                NWK_ResetTransmitCounters
 .text.NWK_IsNewUpdateIdNonLess
                0x00011880       0x38 ../../../../BitCloud/lib/libBc_All_Atmega256rfr2_Atmega256rfr2_Gcc.a(nwk.o)
                0x00011880                NWK_IsNewUpdateIdNonLess
 .text.nwkFindDeviceToJoin
                0x000118b8      0x17a ../../../../BitCloud/lib/libBc_All_Atmega256rfr2_Atmega256rfr2_Gcc.a(nwk.o)
 .text.nwkAssociate
                0x00011a32       0x9c ../../../../BitCloud/lib/libBc_All_Atmega256rfr2_Atmega256rfr2_Gcc.a(nwk.o)
 .text.nwkGetSuitableParent
                0x00011ace       0x7e ../../../../BitCloud/lib/libBc_All_Atmega256rfr2_Atmega256rfr2_Gcc.a(nwk.o)
 .text.nwkRejoinResponseFrameInd
                0x00011b4c      0x14a ../../../../BitCloud/lib/libBc_All_Atmega256rfr2_Atmega256rfr2_Gcc.a(nwk.o)
 .text.nwkRejoinCmdPrepareAndSend
                0x00011c96       0x2a ../../../../BitCloud/lib/libBc_All_Atmega256rfr2_Atmega256rfr2_Gcc.a(nwk.o)
 .text.nwkJoinReqMacRxEnableConf
                0x00011cc0       0x6c ../../../../BitCloud/lib/libBc_All_Atmega256rfr2_Atmega256rfr2_Gcc.a(nwk.o)
 .text.nwkJoinReqMacGetConf
                0x00011d2c       0x3a ../../../../BitCloud/lib/libBc_All_Atmega256rfr2_Atmega256rfr2_Gcc.a(nwk.o)
 .text.nwkConfirmJoinReqTx
                0x00011d66       0x5e ../../../../BitCloud/lib/libBc_All_Atmega256rfr2_Atmega256rfr2_Gcc.a(nwk.o)
 .text.responseWaitTimerFired
                0x00011dc4       0x4a ../../../../BitCloud/lib/libBc_All_Atmega256rfr2_Atmega256rfr2_Gcc.a(nwk.o)
 .text.nwkJoinReqMacPollConf
                0x00011e0e       0x5c ../../../../BitCloud/lib/libBc_All_Atmega256rfr2_Atmega256rfr2_Gcc.a(nwk.o)
 .text.macLatencyFired
                0x00011e6a        0x4 ../../../../BitCloud/lib/libBc_All_Atmega256rfr2_Atmega256rfr2_Gcc.a(nwk.o)
 .text.NWK_JoinReq
                0x00011e6e       0x62 ../../../../BitCloud/lib/libBc_All_Atmega256rfr2_Atmega256rfr2_Gcc.a(nwk.o)
                0x00011e6e                NWK_JoinReq
 .text.NWK_RemoveNeighbor
                0x00011ed0       0x8e ../../../../BitCloud/lib/libBc_All_Atmega256rfr2_Atmega256rfr2_Gcc.a(nwk.o)
                0x00011ed0                NWK_RemoveNeighbor
 .text.neighborTimerFired
                0x00011f5e       0xd8 ../../../../BitCloud/lib/libBc_All_Atmega256rfr2_Atmega256rfr2_Gcc.a(nwk.o)
 .text.NWK_LeaveReq
                0x00012036       0x20 ../../../../BitCloud/lib/libBc_All_Atmega256rfr2_Atmega256rfr2_Gcc.a(nwk.o)
                0x00012036                NWK_LeaveReq
 .text.nwkUpdateOutgoingCostAndLifeTime
                0x00012056       0x46 ../../../../BitCloud/lib/libBc_All_Atmega256rfr2_Atmega256rfr2_Gcc.a(nwk.o)
                0x00012056                nwkUpdateOutgoingCostAndLifeTime
 .text.NWK_ForceLinkStatusSending
                0x0001209c       0x18 ../../../../BitCloud/lib/libBc_All_Atmega256rfr2_Atmega256rfr2_Gcc.a(nwk.o)
                0x0001209c                NWK_ForceLinkStatusSending
 .text.NWK_LoopbackTxReq
                0x000120b4       0x20 ../../../../BitCloud/lib/libBc_All_Atmega256rfr2_Atmega256rfr2_Gcc.a(nwk.o)
                0x000120b4                NWK_LoopbackTxReq
 .text.NWK_DataReq
                0x000120d4      0x2ba ../../../../BitCloud/lib/libBc_All_Atmega256rfr2_Atmega256rfr2_Gcc.a(nwk.o)
                0x000120d4                NWK_DataReq
 .text.NWK_NextEDChild
                0x0001238e       0x4a ../../../../BitCloud/lib/libBc_All_Atmega256rfr2_Atmega256rfr2_Gcc.a(nwk.o)
                0x0001238e                NWK_NextEDChild
 .text.NWK_FindNeighborByShortAddr
                0x000123d8       0x44 ../../../../BitCloud/lib/libBc_All_Atmega256rfr2_Atmega256rfr2_Gcc.a(nwk.o)
                0x000123d8                NWK_FindNeighborByShortAddr
 .text.NWK_GetExtByShortAddress
                0x0001241c       0x58 ../../../../BitCloud/lib/libBc_All_Atmega256rfr2_Atmega256rfr2_Gcc.a(nwk.o)
                0x0001241c                NWK_GetExtByShortAddress
 .text.nwkPrepareRouteRequestTx
                0x00012474      0x14e ../../../../BitCloud/lib/libBc_All_Atmega256rfr2_Atmega256rfr2_Gcc.a(nwk.o)
 .text.nwkAllocNonConflAddr
                0x000125c2       0xdc ../../../../BitCloud/lib/libBc_All_Atmega256rfr2_Atmega256rfr2_Gcc.a(nwk.o)
 .text.nwkAllocateShortAddr.isra.55
                0x0001269e       0x92 ../../../../BitCloud/lib/libBc_All_Atmega256rfr2_Atmega256rfr2_Gcc.a(nwk.o)
 .text.nwkResolveAddressConflict
                0x00012730      0x21e ../../../../BitCloud/lib/libBc_All_Atmega256rfr2_Atmega256rfr2_Gcc.a(nwk.o)
 .text.nwkStatusFrameInd
                0x0001294e       0x44 ../../../../BitCloud/lib/libBc_All_Atmega256rfr2_Atmega256rfr2_Gcc.a(nwk.o)
 .text.nwkAddressConflictTaskHandler
                0x00012992       0x9e ../../../../BitCloud/lib/libBc_All_Atmega256rfr2_Atmega256rfr2_Gcc.a(nwk.o)
 .text.nwkJoinReqMacSetConf
                0x00012a30      0x20a ../../../../BitCloud/lib/libBc_All_Atmega256rfr2_Atmega256rfr2_Gcc.a(nwk.o)
 .text.nwkGetNextHop
                0x00012c3a      0x1da ../../../../BitCloud/lib/libBc_All_Atmega256rfr2_Atmega256rfr2_Gcc.a(nwk.o)
 .text.nwkPrepareNetworkStatusTx
                0x00012e14      0x132 ../../../../BitCloud/lib/libBc_All_Atmega256rfr2_Atmega256rfr2_Gcc.a(nwk.o)
 .text.nwkPrepareRouteReplyTx
                0x00012f46      0x2dc ../../../../BitCloud/lib/libBc_All_Atmega256rfr2_Atmega256rfr2_Gcc.a(nwk.o)
 .text.nwkTxDelayReq
                0x00013222      0x29e ../../../../BitCloud/lib/libBc_All_Atmega256rfr2_Atmega256rfr2_Gcc.a(nwk.o)
 .text.MAC_DataConf
                0x000134c0       0x2e ../../../../BitCloud/lib/libBc_All_Atmega256rfr2_Atmega256rfr2_Gcc.a(nwk.o)
 .text.nwkTransmitOutputPacket.constprop.61
                0x000134ee       0x46 ../../../../BitCloud/lib/libBc_All_Atmega256rfr2_Atmega256rfr2_Gcc.a(nwk.o)
 .text.nwkMeshRouteDiscoveryConf
                0x00013534       0x5e ../../../../BitCloud/lib/libBc_All_Atmega256rfr2_Atmega256rfr2_Gcc.a(nwk.o)
 .text.nwkSendDiscoveryCommand
                0x00013592       0x6c ../../../../BitCloud/lib/libBc_All_Atmega256rfr2_Atmega256rfr2_Gcc.a(nwk.o)
 .text.nwkRouteDiscoveryTableTaskHandler
                0x000135fe       0xae ../../../../BitCloud/lib/libBc_All_Atmega256rfr2_Atmega256rfr2_Gcc.a(nwk.o)
 .text.NWK_FindNeighborByExtAddr
                0x000136ac       0x64 ../../../../BitCloud/lib/libBc_All_Atmega256rfr2_Atmega256rfr2_Gcc.a(nwk.o)
                0x000136ac                NWK_FindNeighborByExtAddr
 .text.NWK_LinkShortAndExtAddress
                0x00013710       0xd0 ../../../../BitCloud/lib/libBc_All_Atmega256rfr2_Atmega256rfr2_Gcc.a(nwk.o)
                0x00013710                NWK_LinkShortAndExtAddress
 .text.nwkRouteReplyFrameInd
                0x000137e0      0x18c ../../../../BitCloud/lib/libBc_All_Atmega256rfr2_Atmega256rfr2_Gcc.a(nwk.o)
 .text.NWK_GetShortByExtAddress
                0x0001396c       0x66 ../../../../BitCloud/lib/libBc_All_Atmega256rfr2_Atmega256rfr2_Gcc.a(nwk.o)
                0x0001396c                NWK_GetShortByExtAddress
 .text.nwkJoinIndMacCommStatusInd
                0x000139d2       0x74 ../../../../BitCloud/lib/libBc_All_Atmega256rfr2_Atmega256rfr2_Gcc.a(nwk.o)
 .text.nwkLeaveFrameInd
                0x00013a46      0x17c ../../../../BitCloud/lib/libBc_All_Atmega256rfr2_Atmega256rfr2_Gcc.a(nwk.o)
 .text.nwkConfirmJoinRespTx
                0x00013bc2       0x62 ../../../../BitCloud/lib/libBc_All_Atmega256rfr2_Atmega256rfr2_Gcc.a(nwk.o)
 .text.nwkConfirmAddrConflictJoinRespTx
                0x00013c24       0x52 ../../../../BitCloud/lib/libBc_All_Atmega256rfr2_Atmega256rfr2_Gcc.a(nwk.o)
 .text.nwkLeaveTaskHandler
                0x00013c76      0x138 ../../../../BitCloud/lib/libBc_All_Atmega256rfr2_Atmega256rfr2_Gcc.a(nwk.o)
 .text.NWK_CostFromLqi
                0x00013dae       0x3c ../../../../BitCloud/lib/libBc_All_Atmega256rfr2_Atmega256rfr2_Gcc.a(nwk.o)
                0x00013dae                NWK_CostFromLqi
 .text.nwkInitLqiAndCostOfNeighbor
                0x00013dea       0x6a ../../../../BitCloud/lib/libBc_All_Atmega256rfr2_Atmega256rfr2_Gcc.a(nwk.o)
 .text.MAC_BeaconNotifyInd
                0x00013e54      0x4de ../../../../BitCloud/lib/libBc_All_Atmega256rfr2_Atmega256rfr2_Gcc.a(nwk.o)
                0x00013e54                MAC_BeaconNotifyInd
 .text.nwkAddChild
                0x00014332      0x2de ../../../../BitCloud/lib/libBc_All_Atmega256rfr2_Atmega256rfr2_Gcc.a(nwk.o)
 .text.MAC_AssociateInd
                0x00014610       0xcc ../../../../BitCloud/lib/libBc_All_Atmega256rfr2_Atmega256rfr2_Gcc.a(nwk.o)
                0x00014610                MAC_AssociateInd
 .text.nwkUpdateLqiAndCostOfNeighbor
                0x000146dc       0x82 ../../../../BitCloud/lib/libBc_All_Atmega256rfr2_Atmega256rfr2_Gcc.a(nwk.o)
 .text.MAC_AssociateConf
                0x0001475e       0xee ../../../../BitCloud/lib/libBc_All_Atmega256rfr2_Atmega256rfr2_Gcc.a(nwk.o)
 .text.nwkRejoinRequestFrameInd
                0x0001484c      0x13e ../../../../BitCloud/lib/libBc_All_Atmega256rfr2_Atmega256rfr2_Gcc.a(nwk.o)
 .text.nwkProcessRouteRequest
                0x0001498a      0x1fe ../../../../BitCloud/lib/libBc_All_Atmega256rfr2_Atmega256rfr2_Gcc.a(nwk.o)
 .text.nwkRouteRequestFrameInd
                0x00014b88       0xaa ../../../../BitCloud/lib/libBc_All_Atmega256rfr2_Atmega256rfr2_Gcc.a(nwk.o)
 .text.NWK_GetNeighborTable
                0x00014c32        0x6 ../../../../BitCloud/lib/libBc_All_Atmega256rfr2_Atmega256rfr2_Gcc.a(nwk.o)
                0x00014c32                NWK_GetNeighborTable
 .text.NWK_GetNeighborsLqi
                0x00014c38       0x3a ../../../../BitCloud/lib/libBc_All_Atmega256rfr2_Atmega256rfr2_Gcc.a(nwk.o)
                0x00014c38                NWK_GetNeighborsLqi
 .text.NWK_IsKnownChild
                0x00014c72       0x24 ../../../../BitCloud/lib/libBc_All_Atmega256rfr2_Atmega256rfr2_Gcc.a(nwk.o)
                0x00014c72                NWK_IsKnownChild
 .text.NWK_AddKnownNeighbor
                0x00014c96      0x118 ../../../../BitCloud/lib/libBc_All_Atmega256rfr2_Atmega256rfr2_Gcc.a(nwk.o)
                0x00014c96                NWK_AddKnownNeighbor
 .text.MAC_OrphanInd
                0x00014dae       0x78 ../../../../BitCloud/lib/libBc_All_Atmega256rfr2_Atmega256rfr2_Gcc.a(nwk.o)
                0x00014dae                MAC_OrphanInd
 .text.NWK_PermitJoiningReq
                0x00014e26       0x2c ../../../../BitCloud/lib/libBc_All_Atmega256rfr2_Atmega256rfr2_Gcc.a(nwk.o)
                0x00014e26                NWK_PermitJoiningReq
 .text.NWK_ResetReq
                0x00014e52       0x3e ../../../../BitCloud/lib/libBc_All_Atmega256rfr2_Atmega256rfr2_Gcc.a(nwk.o)
                0x00014e52                NWK_ResetReq
 .text.NWK_Init
                0x00014e90       0x1c ../../../../BitCloud/lib/libBc_All_Atmega256rfr2_Atmega256rfr2_Gcc.a(nwk.o)
                0x00014e90                NWK_Init
 .text.NWK_RouteDiscoveryReq
                0x00014eac       0x32 ../../../../BitCloud/lib/libBc_All_Atmega256rfr2_Atmega256rfr2_Gcc.a(nwk.o)
                0x00014eac                NWK_RouteDiscoveryReq
 .text.nwkTxTaskHandler
                0x00014ede      0x1b8 ../../../../BitCloud/lib/libBc_All_Atmega256rfr2_Atmega256rfr2_Gcc.a(nwk.o)
 .text.NWK_FreeRoutingEntry
                0x00015096        0x6 ../../../../BitCloud/lib/libBc_All_Atmega256rfr2_Atmega256rfr2_Gcc.a(nwk.o)
                0x00015096                NWK_FreeRoutingEntry
 .text.NWK_NextRoutingEntry
                0x0001509c       0x46 ../../../../BitCloud/lib/libBc_All_Atmega256rfr2_Atmega256rfr2_Gcc.a(nwk.o)
                0x0001509c                NWK_NextRoutingEntry
 .text.nwkFillNeighborEntryRxFrame
                0x000150e2       0x9c ../../../../BitCloud/lib/libBc_All_Atmega256rfr2_Atmega256rfr2_Gcc.a(nwk.o)
                0x000150e2                nwkFillNeighborEntryRxFrame
 .text.nwkLinkStatusInd
                0x0001517e      0x1c8 ../../../../BitCloud/lib/libBc_All_Atmega256rfr2_Atmega256rfr2_Gcc.a(nwk.o)
 .text.unlikely.nwkUpdateNeighborTableFromRxFrame
                0x00015346      0x174 ../../../../BitCloud/lib/libBc_All_Atmega256rfr2_Atmega256rfr2_Gcc.a(nwk.o)
 .text.unlikely.nwkRxIndication
                0x000154ba      0x26a ../../../../BitCloud/lib/libBc_All_Atmega256rfr2_Atmega256rfr2_Gcc.a(nwk.o)
 .text.MAC_DataInd
                0x00015724      0x548 ../../../../BitCloud/lib/libBc_All_Atmega256rfr2_Atmega256rfr2_Gcc.a(nwk.o)
                0x00015724                MAC_DataInd
 .text.NWK_StartRouterReq
                0x00015c6c       0x20 ../../../../BitCloud/lib/libBc_All_Atmega256rfr2_Atmega256rfr2_Gcc.a(nwk.o)
                0x00015c6c                NWK_StartRouterReq
 .text.NWK_IsActiveTransaction
                0x00015c8c       0x50 ../../../../BitCloud/lib/libBc_All_Atmega256rfr2_Atmega256rfr2_Gcc.a(nwk.o)
                0x00015c8c                NWK_IsActiveTransaction
 .text.isNwkBusyRequest
                0x00015cdc       0x1c ../../../../BitCloud/lib/libBc_All_Atmega256rfr2_Atmega256rfr2_Gcc.a(nwk.o)
 .text.NWK_LaunchActivities
                0x00015cf8       0x12 ../../../../BitCloud/lib/libBc_All_Atmega256rfr2_Atmega256rfr2_Gcc.a(nwk.o)
                0x00015cf8                NWK_LaunchActivities
 .text.NWK_StopActivities
                0x00015d0a       0x16 ../../../../BitCloud/lib/libBc_All_Atmega256rfr2_Atmega256rfr2_Gcc.a(nwk.o)
                0x00015d0a                NWK_StopActivities
 .text.NWK_DeviceIsAbleToOperateInNetwork
                0x00015d20       0x30 ../../../../BitCloud/lib/libBc_All_Atmega256rfr2_Atmega256rfr2_Gcc.a(nwk.o)
                0x00015d20                NWK_DeviceIsAbleToOperateInNetwork
 .text.NWK_SyncReq
                0x00015d50       0x20 ../../../../BitCloud/lib/libBc_All_Atmega256rfr2_Atmega256rfr2_Gcc.a(nwk.o)
                0x00015d50                NWK_SyncReq
 .text.MAC_PollInd
                0x00015d70       0x50 ../../../../BitCloud/lib/libBc_All_Atmega256rfr2_Atmega256rfr2_Gcc.a(nwk.o)
                0x00015d70                MAC_PollInd
 .text.MAC_SyncLossInd
                0x00015dc0        0x2 ../../../../BitCloud/lib/libBc_All_Atmega256rfr2_Atmega256rfr2_Gcc.a(nwk.o)
                0x00015dc0                MAC_SyncLossInd
 .text.NWK_TaskHandler
                0x00015dc2       0xd6 ../../../../BitCloud/lib/libBc_All_Atmega256rfr2_Atmega256rfr2_Gcc.a(nwk.o)
                0x00015dc2                NWK_TaskHandler
 .text.NWK_GetUnicastDeliveryTime
                0x00015e98       0x82 ../../../../BitCloud/lib/libBc_All_Atmega256rfr2_Atmega256rfr2_Gcc.a(nwk.o)
                0x00015e98                NWK_GetUnicastDeliveryTime
 .text.PHY_SelectAntenna
                0x00015f1a       0x38 ../../../../BitCloud/lib/libBc_All_Atmega256rfr2_Atmega256rfr2_Gcc.a(phyAntDiversity.o)
                0x00015f1a                PHY_SelectAntenna
 .text.phyStoreAntennaUsedForTx
                0x00015f52       0x1a ../../../../BitCloud/lib/libBc_All_Atmega256rfr2_Atmega256rfr2_Gcc.a(phyAntDiversity.o)
                0x00015f52                phyStoreAntennaUsedForTx
 .text.PHY_ReadLastAntennaForTx
                0x00015f6c        0xe ../../../../BitCloud/lib/libBc_All_Atmega256rfr2_Atmega256rfr2_Gcc.a(phyAntDiversity.o)
                0x00015f6c                PHY_ReadLastAntennaForTx
 .text.phyAllowAntDivForTx
                0x00015f7a       0x2c ../../../../BitCloud/lib/libBc_All_Atmega256rfr2_Atmega256rfr2_Gcc.a(phyAntDiversity.o)
                0x00015f7a                phyAllowAntDivForTx
 .text.RF_Init  0x00015fa6       0x30 ../../../../BitCloud/lib/libBc_All_Atmega256rfr2_Atmega256rfr2_Gcc.a(phyInit.o)
                0x00015fa6                RF_Init
 .text.PHY_RegWriteReq
                0x00015fd6       0x34 ../../../../BitCloud/lib/libBc_All_Atmega256rfr2_Atmega256rfr2_Gcc.a(phyRegAccess.o)
                0x00015fd6                PHY_RegWriteReq
 .text.PHY_RegReadReq
                0x0001600a       0x34 ../../../../BitCloud/lib/libBc_All_Atmega256rfr2_Atmega256rfr2_Gcc.a(phyRegAccess.o)
                0x0001600a                PHY_RegReadReq
 .text.PHY_Reset
                0x0001603e       0xc2 ../../../../BitCloud/lib/libBc_All_Atmega256rfr2_Atmega256rfr2_Gcc.a(phyReset.o)
                0x0001603e                PHY_Reset
 .text.phyRxEndInterrupt
                0x00016100      0x3c4 ../../../../BitCloud/lib/libBc_All_Atmega256rfr2_Atmega256rfr2_Gcc.a(phyRfIrqDispatcher.o)
                0x00016100                phyRxEndInterrupt
 .text.phyTxEndInterrupt
                0x000164c4      0x15e ../../../../BitCloud/lib/libBc_All_Atmega256rfr2_Atmega256rfr2_Gcc.a(phyRfIrqDispatcher.o)
                0x000164c4                phyTxEndInterrupt
 .text.phyBatLowInterrupt
                0x00016622       0x50 ../../../../BitCloud/lib/libBc_All_Atmega256rfr2_Atmega256rfr2_Gcc.a(phyRfIrqDispatcher.o)
                0x00016622                phyBatLowInterrupt
 .text.phyRestoreRfIrqMask
                0x00016672        0x6 ../../../../BitCloud/lib/libBc_All_Atmega256rfr2_Atmega256rfr2_Gcc.a(phyRfIrqDispatcher.o)
                0x00016672                phyRestoreRfIrqMask
 .text.phyClearRfIrqMask
                0x00016678        0xa ../../../../BitCloud/lib/libBc_All_Atmega256rfr2_Atmega256rfr2_Gcc.a(phyRfIrqDispatcher.o)
                0x00016678                phyClearRfIrqMask
 .text.phyGetDataStatus
                0x00016682       0x18 ../../../../BitCloud/lib/libBc_All_Atmega256rfr2_Atmega256rfr2_Gcc.a(phyRfIrqDispatcher.o)
                0x00016682                phyGetDataStatus
 .text.PHY_RndReq
                0x0001669a      0x18a ../../../../BitCloud/lib/libBc_All_Atmega256rfr2_Atmega256rfr2_Gcc.a(phyRnd.o)
                0x0001669a                PHY_RndReq
 .text.PHY_SetReq
                0x00016824      0x13a ../../../../BitCloud/lib/libBc_All_Atmega256rfr2_Atmega256rfr2_Gcc.a(phySet.o)
                0x00016824                PHY_SetReq
 .text.PHY_SetTrxStateReq
                0x0001695e       0xbc ../../../../BitCloud/lib/libBc_All_Atmega256rfr2_Atmega256rfr2_Gcc.a(phySetTrxState.o)
                0x0001695e                PHY_SetTrxStateReq
 .text.PHY_DataReq
                0x00016a1a       0x28 ../../../../BitCloud/lib/libBc_All_Atmega256rfr2_Atmega256rfr2_Gcc.a(phyTxFrame.o)
                0x00016a1a                PHY_DataReq
 .text.PHY_ConvertTxPowerFromDbm
                0x00016a42       0x72 ../../../../BitCloud/lib/libBc_All_Atmega256rfr2_Atmega256rfr2_Gcc.a(phyTxPowerConverter.o)
                0x00016a42                PHY_ConvertTxPowerFromDbm
 .text.zdoInitResetNetworkConf
                0x00016ab4       0x1a ../../../../BitCloud/lib/libBc_All_Atmega256rfr2_Atmega256rfr2_Gcc.a(zdo.o)
 .text.APS_StopConf
                0x00016ace       0x14 ../../../../BitCloud/lib/libBc_All_Atmega256rfr2_Atmega256rfr2_Gcc.a(zdo.o)
 .text.sleepConfirm
                0x00016ae2       0x22 ../../../../BitCloud/lib/libBc_All_Atmega256rfr2_Atmega256rfr2_Gcc.a(zdo.o)
 .text.zdoSecurityManagerHandler
                0x00016b04        0x2 ../../../../BitCloud/lib/libBc_All_Atmega256rfr2_Atmega256rfr2_Gcc.a(zdo.o)
                0x00016b04                zdoSecurityManagerHandler
 .text.zdoPostTask
                0x00016b06       0x30 ../../../../BitCloud/lib/libBc_All_Atmega256rfr2_Atmega256rfr2_Gcc.a(zdo.o)
 .text.startConfirm
                0x00016b36       0x2a ../../../../BitCloud/lib/libBc_All_Atmega256rfr2_Atmega256rfr2_Gcc.a(zdo.o)
 .text.wakeUpConfirm
                0x00016b60       0x1e ../../../../BitCloud/lib/libBc_All_Atmega256rfr2_Atmega256rfr2_Gcc.a(zdo.o)
 .text.zdoZdpApsConfCallback
                0x00016b7e       0x36 ../../../../BitCloud/lib/libBc_All_Atmega256rfr2_Atmega256rfr2_Gcc.a(zdo.o)
 .text.zdoIsZdpReqUnicast
                0x00016bb4       0x22 ../../../../BitCloud/lib/libBc_All_Atmega256rfr2_Atmega256rfr2_Gcc.a(zdo.o)
 .text.zdoFreeCommand
                0x00016bd6       0x60 ../../../../BitCloud/lib/libBc_All_Atmega256rfr2_Atmega256rfr2_Gcc.a(zdo.o)
 .text.zdoZdpResponseConf
                0x00016c36        0x4 ../../../../BitCloud/lib/libBc_All_Atmega256rfr2_Atmega256rfr2_Gcc.a(zdo.o)
 .text.zdoDefaultBindApsDataConf
                0x00016c3a        0x4 ../../../../BitCloud/lib/libBc_All_Atmega256rfr2_Atmega256rfr2_Gcc.a(zdo.o)
 .text.zdoNodeManagerNwkLeaveConf
                0x00016c3e        0x4 ../../../../BitCloud/lib/libBc_All_Atmega256rfr2_Atmega256rfr2_Gcc.a(zdo.o)
 .text.zdoPermitJoiningConf
                0x00016c42       0x38 ../../../../BitCloud/lib/libBc_All_Atmega256rfr2_Atmega256rfr2_Gcc.a(zdo.o)
 .text.zdoSendDeviceAnnceConf
                0x00016c7a        0x4 ../../../../BitCloud/lib/libBc_All_Atmega256rfr2_Atmega256rfr2_Gcc.a(zdo.o)
 .text.addrResolvingAddrRespHandler
                0x00016c7e       0x1a ../../../../BitCloud/lib/libBc_All_Atmega256rfr2_Atmega256rfr2_Gcc.a(zdo.o)
 .text.zdoOtherEventListener
                0x00016c98       0x32 ../../../../BitCloud/lib/libBc_All_Atmega256rfr2_Atmega256rfr2_Gcc.a(zdo.o)
 .text.joinNetwork
                0x00016cca       0x7e ../../../../BitCloud/lib/libBc_All_Atmega256rfr2_Atmega256rfr2_Gcc.a(zdo.o)
 .text.zdoRejoinNetwork
                0x00016d48       0x32 ../../../../BitCloud/lib/libBc_All_Atmega256rfr2_Atmega256rfr2_Gcc.a(zdo.o)
 .text.zdoIntraPanPortApsStopConf
                0x00016d7a       0x18 ../../../../BitCloud/lib/libBc_All_Atmega256rfr2_Atmega256rfr2_Gcc.a(zdo.o)
 .text.joinTimerFired
                0x00016d92        0x4 ../../../../BitCloud/lib/libBc_All_Atmega256rfr2_Atmega256rfr2_Gcc.a(zdo.o)
 .text.zdoSetOutOfNetworkFlag
                0x00016d96       0x2c ../../../../BitCloud/lib/libBc_All_Atmega256rfr2_Atmega256rfr2_Gcc.a(zdo.o)
 .text.zdoNetworkFormationReq
                0x00016dc2       0x5c ../../../../BitCloud/lib/libBc_All_Atmega256rfr2_Atmega256rfr2_Gcc.a(zdo.o)
 .text.permitJoin
                0x00016e1e       0x22 ../../../../BitCloud/lib/libBc_All_Atmega256rfr2_Atmega256rfr2_Gcc.a(zdo.o)
 .text.startAps
                0x00016e40       0x1a ../../../../BitCloud/lib/libBc_All_Atmega256rfr2_Atmega256rfr2_Gcc.a(zdo.o)
 .text.authenticationSuccess
                0x00016e5a       0x14 ../../../../BitCloud/lib/libBc_All_Atmega256rfr2_Atmega256rfr2_Gcc.a(zdo.o)
 .text.zdoChannelChangeTimerFired
                0x00016e6e       0x5e ../../../../BitCloud/lib/libBc_All_Atmega256rfr2_Atmega256rfr2_Gcc.a(zdo.o)
 .text.zdoMgmtNwkUpdateMacSetConf
                0x00016ecc       0x64 ../../../../BitCloud/lib/libBc_All_Atmega256rfr2_Atmega256rfr2_Gcc.a(zdo.o)
 .text.zdoNwkEventListener
                0x00016f30       0x5c ../../../../BitCloud/lib/libBc_All_Atmega256rfr2_Atmega256rfr2_Gcc.a(zdo.o)
 .text.zdoChildEventListener
                0x00016f8c       0x96 ../../../../BitCloud/lib/libBc_All_Atmega256rfr2_Atmega256rfr2_Gcc.a(zdo.o)
 .text.getTimeFromLastPoll
                0x00017022       0x56 ../../../../BitCloud/lib/libBc_All_Atmega256rfr2_Atmega256rfr2_Gcc.a(zdo.o)
 .text.ttlUpdateTimerFired
                0x00017078      0x118 ../../../../BitCloud/lib/libBc_All_Atmega256rfr2_Atmega256rfr2_Gcc.a(zdo.o)
 .text.zdoCheckAddrResolvingRequestsQueue
                0x00017190       0x20 ../../../../BitCloud/lib/libBc_All_Atmega256rfr2_Atmega256rfr2_Gcc.a(zdo.o)
 .text.zdoStartNetworkConfirm
                0x000171b0       0x24 ../../../../BitCloud/lib/libBc_All_Atmega256rfr2_Atmega256rfr2_Gcc.a(zdo.o)
 .text.NWK_NetworkFormationConf
                0x000171d4        0xc ../../../../BitCloud/lib/libBc_All_Atmega256rfr2_Atmega256rfr2_Gcc.a(zdo.o)
 .text.NWK_StartRouterConf
                0x000171e0        0xc ../../../../BitCloud/lib/libBc_All_Atmega256rfr2_Atmega256rfr2_Gcc.a(zdo.o)
 .text.NWK_PermitJoinConf
                0x000171ec       0x46 ../../../../BitCloud/lib/libBc_All_Atmega256rfr2_Atmega256rfr2_Gcc.a(zdo.o)
 .text.zdoCheckNwkAddrOfInterest
                0x00017232       0x4a ../../../../BitCloud/lib/libBc_All_Atmega256rfr2_Atmega256rfr2_Gcc.a(zdo.o)
 .text.sendSyncReq
                0x0001727c       0x44 ../../../../BitCloud/lib/libBc_All_Atmega256rfr2_Atmega256rfr2_Gcc.a(zdo.o)
 .text.startSyncTimer
                0x000172c0       0xe0 ../../../../BitCloud/lib/libBc_All_Atmega256rfr2_Atmega256rfr2_Gcc.a(zdo.o)
 .text.startPolling
                0x000173a0       0x42 ../../../../BitCloud/lib/libBc_All_Atmega256rfr2_Atmega256rfr2_Gcc.a(zdo.o)
 .text.transceiverSwitchedOn
                0x000173e2       0x56 ../../../../BitCloud/lib/libBc_All_Atmega256rfr2_Atmega256rfr2_Gcc.a(zdo.o)
 .text.zdoZdpReqHandler
                0x00017438      0x452 ../../../../BitCloud/lib/libBc_All_Atmega256rfr2_Atmega256rfr2_Gcc.a(zdo.o)
 .text.zdoZdpResetReq
                0x0001788a       0x1c ../../../../BitCloud/lib/libBc_All_Atmega256rfr2_Atmega256rfr2_Gcc.a(zdo.o)
 .text.zdoAllocCommand
                0x000178a6       0x94 ../../../../BitCloud/lib/libBc_All_Atmega256rfr2_Atmega256rfr2_Gcc.a(zdo.o)
 .text.zdoAllocMgmtNwkUpdate
                0x0001793a       0x1a ../../../../BitCloud/lib/libBc_All_Atmega256rfr2_Atmega256rfr2_Gcc.a(zdo.o)
 .text.NWK_JoinConf
                0x00017954       0x52 ../../../../BitCloud/lib/libBc_All_Atmega256rfr2_Atmega256rfr2_Gcc.a(zdo.o)
 .text.zdoCheckStartNetworkRequestsQueue
                0x000179a6       0x34 ../../../../BitCloud/lib/libBc_All_Atmega256rfr2_Atmega256rfr2_Gcc.a(zdo.o)
 .text.zdoStartNetworkTaskHandler
                0x000179da      0x2c4 ../../../../BitCloud/lib/libBc_All_Atmega256rfr2_Atmega256rfr2_Gcc.a(zdo.o)
 .text.reenterNetwork
                0x00017c9e       0x38 ../../../../BitCloud/lib/libBc_All_Atmega256rfr2_Atmega256rfr2_Gcc.a(zdo.o)
 .text.wakeupCallback
                0x00017cd6       0x7e ../../../../BitCloud/lib/libBc_All_Atmega256rfr2_Atmega256rfr2_Gcc.a(zdo.o)
 .text.wakeUpStack
                0x00017d54       0x84 ../../../../BitCloud/lib/libBc_All_Atmega256rfr2_Atmega256rfr2_Gcc.a(zdo.o)
 .text.zdoMgmtNwkUpdateNotifyConf
                0x00017dd8       0x3e ../../../../BitCloud/lib/libBc_All_Atmega256rfr2_Atmega256rfr2_Gcc.a(zdo.o)
 .text.ZDO_ResolveAddrReq
                0x00017e16        0xc ../../../../BitCloud/lib/libBc_All_Atmega256rfr2_Atmega256rfr2_Gcc.a(zdo.o)
                0x00017e16                ZDO_ResolveAddrReq
 .text.ZDO_FindShortByExt
                0x00017e22        0x6 ../../../../BitCloud/lib/libBc_All_Atmega256rfr2_Atmega256rfr2_Gcc.a(zdo.o)
                0x00017e22                ZDO_FindShortByExt
 .text.ZDO_FindExtByShort
                0x00017e28        0x6 ../../../../BitCloud/lib/libBc_All_Atmega256rfr2_Atmega256rfr2_Gcc.a(zdo.o)
                0x00017e28                ZDO_FindExtByShort
 .text.zdoInitNotifications
                0x00017e2e       0x6e ../../../../BitCloud/lib/libBc_All_Atmega256rfr2_Atmega256rfr2_Gcc.a(zdo.o)
                0x00017e2e                zdoInitNotifications
 .text.NWK_JoinInd
                0x00017e9c       0x4e ../../../../BitCloud/lib/libBc_All_Atmega256rfr2_Atmega256rfr2_Gcc.a(zdo.o)
                0x00017e9c                NWK_JoinInd
 .text.ZDO_SleepReq
                0x00017eea       0x1c ../../../../BitCloud/lib/libBc_All_Atmega256rfr2_Atmega256rfr2_Gcc.a(zdo.o)
                0x00017eea                ZDO_SleepReq
 .text.ZDO_StartSyncReq
                0x00017f06       0x20 ../../../../BitCloud/lib/libBc_All_Atmega256rfr2_Atmega256rfr2_Gcc.a(zdo.o)
                0x00017f06                ZDO_StartSyncReq
 .text.deviceAnnceConf
                0x00017f26       0x18 ../../../../BitCloud/lib/libBc_All_Atmega256rfr2_Atmega256rfr2_Gcc.a(zdo.o)
 .text.ZDO_StopSyncReq
                0x00017f3e       0x1c ../../../../BitCloud/lib/libBc_All_Atmega256rfr2_Atmega256rfr2_Gcc.a(zdo.o)
                0x00017f3e                ZDO_StopSyncReq
 .text.zdoReset
                0x00017f5a       0xa6 ../../../../BitCloud/lib/libBc_All_Atmega256rfr2_Atmega256rfr2_Gcc.a(zdo.o)
 .text.zdoLeaveConfirm
                0x00018000       0x9e ../../../../BitCloud/lib/libBc_All_Atmega256rfr2_Atmega256rfr2_Gcc.a(zdo.o)
 .text.zdoStackResetConf
                0x0001809e       0x36 ../../../../BitCloud/lib/libBc_All_Atmega256rfr2_Atmega256rfr2_Gcc.a(zdo.o)
 .text.zdoLeaveNetwork
                0x000180d4       0x90 ../../../../BitCloud/lib/libBc_All_Atmega256rfr2_Atmega256rfr2_Gcc.a(zdo.o)
 .text.zdoConfirmMgmtLeaveResponse
                0x00018164       0x94 ../../../../BitCloud/lib/libBc_All_Atmega256rfr2_Atmega256rfr2_Gcc.a(zdo.o)
 .text.zdoParentChangeConf
                0x000181f8       0x68 ../../../../BitCloud/lib/libBc_All_Atmega256rfr2_Atmega256rfr2_Gcc.a(zdo.o)
 .text.leaveNetworkInd
                0x00018260       0x4a ../../../../BitCloud/lib/libBc_All_Atmega256rfr2_Atmega256rfr2_Gcc.a(zdo.o)
 .text.zdoLeaveNetworkNwkLeaveConf
                0x000182aa       0x24 ../../../../BitCloud/lib/libBc_All_Atmega256rfr2_Atmega256rfr2_Gcc.a(zdo.o)
 .text.NWK_LeaveInd
                0x000182ce       0x8a ../../../../BitCloud/lib/libBc_All_Atmega256rfr2_Atmega256rfr2_Gcc.a(zdo.o)
                0x000182ce                NWK_LeaveInd
 .text.zdoPerformIntraPanPortability
                0x00018358       0x94 ../../../../BitCloud/lib/libBc_All_Atmega256rfr2_Atmega256rfr2_Gcc.a(zdo.o)
 .text.NWK_SyncConf
                0x000183ec       0xb0 ../../../../BitCloud/lib/libBc_All_Atmega256rfr2_Atmega256rfr2_Gcc.a(zdo.o)
 .text.ZDO_IsDeviceReadyToSleep
                0x0001849c       0x58 ../../../../BitCloud/lib/libBc_All_Atmega256rfr2_Atmega256rfr2_Gcc.a(zdo.o)
                0x0001849c                ZDO_IsDeviceReadyToSleep
 .text.ZDO_ResetNetworkReq
                0x000184f4       0x18 ../../../../BitCloud/lib/libBc_All_Atmega256rfr2_Atmega256rfr2_Gcc.a(zdo.o)
                0x000184f4                ZDO_ResetNetworkReq
 .text.zdoInitHandler
                0x0001850c       0x90 ../../../../BitCloud/lib/libBc_All_Atmega256rfr2_Atmega256rfr2_Gcc.a(zdo.o)
 .text.ZDO_StartNetworkReq
                0x0001859c        0xc ../../../../BitCloud/lib/libBc_All_Atmega256rfr2_Atmega256rfr2_Gcc.a(zdo.o)
                0x0001859c                ZDO_StartNetworkReq
 .text.ZDO_GetNwkStatus
                0x000185a8       0x16 ../../../../BitCloud/lib/libBc_All_Atmega256rfr2_Atmega256rfr2_Gcc.a(zdo.o)
                0x000185a8                ZDO_GetNwkStatus
 .text.startSystemSleep
                0x000185be      0x190 ../../../../BitCloud/lib/libBc_All_Atmega256rfr2_Atmega256rfr2_Gcc.a(zdo.o)
 .text.zdoPowerManagerHandler
                0x0001874e      0x178 ../../../../BitCloud/lib/libBc_All_Atmega256rfr2_Atmega256rfr2_Gcc.a(zdo.o)
 .text.transceiverSwitchedOff
                0x000188c6       0x22 ../../../../BitCloud/lib/libBc_All_Atmega256rfr2_Atmega256rfr2_Gcc.a(zdo.o)
 .text.ZDO_TaskHandler
                0x000188e8       0x9c ../../../../BitCloud/lib/libBc_All_Atmega256rfr2_Atmega256rfr2_Gcc.a(zdo.o)
                0x000188e8                ZDO_TaskHandler
 .text.ZDO_ZdpReq
                0x00018984      0x14c ../../../../BitCloud/lib/libBc_All_Atmega256rfr2_Atmega256rfr2_Gcc.a(zdo.o)
                0x00018984                ZDO_ZdpReq
 .text.zdoSendDeviceAnnce
                0x00018ad0       0x68 ../../../../BitCloud/lib/libBc_All_Atmega256rfr2_Atmega256rfr2_Gcc.a(zdo.o)
 .text.APS_StartConf
                0x00018b38       0x3e ../../../../BitCloud/lib/libBc_All_Atmega256rfr2_Atmega256rfr2_Gcc.a(zdo.o)
 .text.NWK_NwkStatusInd
                0x00018b76       0xd8 ../../../../BitCloud/lib/libBc_All_Atmega256rfr2_Atmega256rfr2_Gcc.a(zdo.o)
                0x00018b76                NWK_NwkStatusInd
 .text.zdoSendNwkUpdateNotify
                0x00018c4e       0x9c ../../../../BitCloud/lib/libBc_All_Atmega256rfr2_Atmega256rfr2_Gcc.a(zdo.o)
 .text.APS_ZdoDataInd
                0x00018cea     0x168a ../../../../BitCloud/lib/libBc_All_Atmega256rfr2_Atmega256rfr2_Gcc.a(zdo.o)
                0x00018cea                APS_ZdoDataInd
 .text.zdoEdScanConf
                0x0001a374       0x12 ../../../../BitCloud/lib/libBc_All_Atmega256rfr2_Atmega256rfr2_Gcc.a(zdo.o)
 .text.zdoAddrResolvingTaskHandler
                0x0001a386       0xf8 ../../../../BitCloud/lib/libBc_All_Atmega256rfr2_Atmega256rfr2_Gcc.a(zdo.o)
 .text.machwdBatMonReqHandler
                0x0001a47e       0x46 ../../../../BitCloud/lib/libBc_All_Atmega256rfr2_Atmega256rfr2_Gcc.a(machwdBatMonHandler.o)
                0x0001a47e                machwdBatMonReqHandler
 .text.machwdBatMonTaskHandler
                0x0001a4c4       0x4c ../../../../BitCloud/lib/libBc_All_Atmega256rfr2_Atmega256rfr2_Gcc.a(machwdBatMonHandler.o)
                0x0001a4c4                machwdBatMonTaskHandler
 .text.machwdResetBatMonHandler
                0x0001a510        0xa ../../../../BitCloud/lib/libBc_All_Atmega256rfr2_Atmega256rfr2_Gcc.a(machwdBatMonHandler.o)
                0x0001a510                machwdResetBatMonHandler
 .text.machwdCalibReqHandler
                0x0001a51a       0x40 ../../../../BitCloud/lib/libBc_All_Atmega256rfr2_Atmega256rfr2_Gcc.a(machwdCalibHandler.o)
                0x0001a51a                machwdCalibReqHandler
 .text.machwdCalibTaskHandler
                0x0001a55a       0x34 ../../../../BitCloud/lib/libBc_All_Atmega256rfr2_Atmega256rfr2_Gcc.a(machwdCalibHandler.o)
                0x0001a55a                machwdCalibTaskHandler
 .text.machwdResetCalibHandler
                0x0001a58e        0x6 ../../../../BitCloud/lib/libBc_All_Atmega256rfr2_Atmega256rfr2_Gcc.a(machwdCalibHandler.o)
                0x0001a58e                machwdResetCalibHandler
 .text.machwdEdReqHandler
                0x0001a594       0x28 ../../../../BitCloud/lib/libBc_All_Atmega256rfr2_Atmega256rfr2_Gcc.a(machwdEdHandler.o)
                0x0001a594                machwdEdReqHandler
 .text.machwdEdTaskHandler
                0x0001a5bc       0x28 ../../../../BitCloud/lib/libBc_All_Atmega256rfr2_Atmega256rfr2_Gcc.a(machwdEdHandler.o)
                0x0001a5bc                machwdEdTaskHandler
 .text.machwdResetEdHandler
                0x0001a5e4        0x6 ../../../../BitCloud/lib/libBc_All_Atmega256rfr2_Atmega256rfr2_Gcc.a(machwdEdHandler.o)
                0x0001a5e4                machwdResetEdHandler
 .text.parsePanIdAndAddress
                0x0001a5ea       0x4a ../../../../BitCloud/lib/libBc_All_Atmega256rfr2_Atmega256rfr2_Gcc.a(machwdFrameRoutine.o)
 .text.composePanIdAndAddress
                0x0001a634       0x4e ../../../../BitCloud/lib/libBc_All_Atmega256rfr2_Atmega256rfr2_Gcc.a(machwdFrameRoutine.o)
 .text.machwdParseFrame
                0x0001a682      0x284 ../../../../BitCloud/lib/libBc_All_Atmega256rfr2_Atmega256rfr2_Gcc.a(machwdFrameRoutine.o)
                0x0001a682                machwdParseFrame
 .text.machwdComposeFrame
                0x0001a906      0x1ac ../../../../BitCloud/lib/libBc_All_Atmega256rfr2_Atmega256rfr2_Gcc.a(machwdFrameRoutine.o)
                0x0001a906                machwdComposeFrame
 .text.machwdGetHandlerId
                0x0001aab2       0x4e ../../../../BitCloud/lib/libBc_All_Atmega256rfr2_Atmega256rfr2_Gcc.a(machwdHandlerCtrl.o)
                0x0001aab2                machwdGetHandlerId
 .text.switchingCompleted
                0x0001ab00       0x10 ../../../../BitCloud/lib/libBc_All_Atmega256rfr2_Atmega256rfr2_Gcc.a(machwiAssociateHandler.o)
 .text.setHandling
                0x0001ab10       0x64 ../../../../BitCloud/lib/libBc_All_Atmega256rfr2_Atmega256rfr2_Gcc.a(machwiAssociateHandler.o)
 .text.completeHandling
                0x0001ab74       0x16 ../../../../BitCloud/lib/libBc_All_Atmega256rfr2_Atmega256rfr2_Gcc.a(machwiAssociateHandler.o)
 .text.machwdSetConfirm
                0x0001ab8a      0x166 ../../../../BitCloud/lib/libBc_All_Atmega256rfr2_Atmega256rfr2_Gcc.a(machwiAssociateHandler.o)
 .text.machwdDataConfirm
                0x0001acf0       0xae ../../../../BitCloud/lib/libBc_All_Atmega256rfr2_Atmega256rfr2_Gcc.a(machwiAssociateHandler.o)
 .text.associateTimerFired
                0x0001ad9e       0xc8 ../../../../BitCloud/lib/libBc_All_Atmega256rfr2_Atmega256rfr2_Gcc.a(machwiAssociateHandler.o)
 .text.machwiResetAssociateHandler
                0x0001ae66        0x6 ../../../../BitCloud/lib/libBc_All_Atmega256rfr2_Atmega256rfr2_Gcc.a(machwiAssociateHandler.o)
                0x0001ae66                machwiResetAssociateHandler
 .text.machwiAssociateReqInd
                0x0001ae6c       0x52 ../../../../BitCloud/lib/libBc_All_Atmega256rfr2_Atmega256rfr2_Gcc.a(machwiAssociateHandler.o)
                0x0001ae6c                machwiAssociateReqInd
 .text.machwiAssociateReqHandler
                0x0001aebe       0x8e ../../../../BitCloud/lib/libBc_All_Atmega256rfr2_Atmega256rfr2_Gcc.a(machwiAssociateHandler.o)
                0x0001aebe                machwiAssociateReqHandler
 .text.machwiAssociateRespHandler
                0x0001af4c       0x20 ../../../../BitCloud/lib/libBc_All_Atmega256rfr2_Atmega256rfr2_Gcc.a(machwiAssociateHandler.o)
                0x0001af4c                machwiAssociateRespHandler
 .text.machwiAssociateRespInd
                0x0001af6c      0x10c ../../../../BitCloud/lib/libBc_All_Atmega256rfr2_Atmega256rfr2_Gcc.a(machwiAssociateHandler.o)
                0x0001af6c                machwiAssociateRespInd
 .text.MAC_IsBannedShortAddr
                0x0001b078       0x7c ../../../../BitCloud/lib/libBc_All_Atmega256rfr2_Atmega256rfr2_Gcc.a(machwiBanNode.o)
                0x0001b078                MAC_IsBannedShortAddr
 .text.MAC_IsBannedExtAddr
                0x0001b0f4       0xea ../../../../BitCloud/lib/libBc_All_Atmega256rfr2_Atmega256rfr2_Gcc.a(machwiBanNode.o)
                0x0001b0f4                MAC_IsBannedExtAddr
 .text.machwdDataConfirm
                0x0001b1de       0x20 ../../../../BitCloud/lib/libBc_All_Atmega256rfr2_Atmega256rfr2_Gcc.a(machwiBeaconHandler.o)
 .text.machwiSendBeacon
                0x0001b1fe       0xde ../../../../BitCloud/lib/libBc_All_Atmega256rfr2_Atmega256rfr2_Gcc.a(machwiBeaconHandler.o)
                0x0001b1fe                machwiSendBeacon
 .text.machwiConvertmachwdDataConfirmTypes
                0x0001b2dc       0x14 ../../../../BitCloud/lib/libBc_All_Atmega256rfr2_Atmega256rfr2_Gcc.a(machwiDataHandler.o)
                0x0001b2dc                machwiConvertmachwdDataConfirmTypes
 .text.machwdDataConfirm
                0x0001b2f0       0x20 ../../../../BitCloud/lib/libBc_All_Atmega256rfr2_Atmega256rfr2_Gcc.a(machwiDataHandler.o)
 .text.machwiPrepareDataFrame
                0x0001b310      0x106 ../../../../BitCloud/lib/libBc_All_Atmega256rfr2_Atmega256rfr2_Gcc.a(machwiDataHandler.o)
                0x0001b310                machwiPrepareDataFrame
 .text.machwiDataReqHandler
                0x0001b416       0x60 ../../../../BitCloud/lib/libBc_All_Atmega256rfr2_Atmega256rfr2_Gcc.a(machwiDataHandler.o)
                0x0001b416                machwiDataReqHandler
 .text.machwiCalculateTransactionHash
                0x0001b476       0x88 ../../../../BitCloud/lib/libBc_All_Atmega256rfr2_Atmega256rfr2_Gcc.a(machwiTransactionHash.o)
 .text.machwiTransctionHashInsert
                0x0001b4fe       0x26 ../../../../BitCloud/lib/libBc_All_Atmega256rfr2_Atmega256rfr2_Gcc.a(machwiTransactionHash.o)
                0x0001b4fe                machwiTransctionHashInsert
 .text.machwiTransactionHashRemove
                0x0001b524       0x52 ../../../../BitCloud/lib/libBc_All_Atmega256rfr2_Atmega256rfr2_Gcc.a(machwiTransactionHash.o)
                0x0001b524                machwiTransactionHashRemove
 .text.machwiTransactionHashClear
                0x0001b576       0x10 ../../../../BitCloud/lib/libBc_All_Atmega256rfr2_Atmega256rfr2_Gcc.a(machwiTransactionHash.o)
                0x0001b576                machwiTransactionHashClear
 .text.PHY_BatMonReq
                0x0001b586       0x78 ../../../../BitCloud/lib/libBc_All_Atmega256rfr2_Atmega256rfr2_Gcc.a(phyBatMon.o)
                0x0001b586                PHY_BatMonReq
 .text.PHY_CalibReq
                0x0001b5fe       0x8a ../../../../BitCloud/lib/libBc_All_Atmega256rfr2_Atmega256rfr2_Gcc.a(phyCalib.o)
                0x0001b5fe                PHY_CalibReq
 .text.PHY_EdReq
                0x0001b688       0x3c ../../../../BitCloud/lib/libBc_All_Atmega256rfr2_Atmega256rfr2_Gcc.a(phyEd.o)
                0x0001b688                PHY_EdReq
 .text.phyPllTxFilterON
                0x0001b6c4       0x20 ../../../../BitCloud/lib/libBc_All_Atmega256rfr2_Atmega256rfr2_Gcc.a(phyRxTxIndicator.o)
                0x0001b6c4                phyPllTxFilterON
 .text.phyPllTxFilterOff
                0x0001b6e4       0x20 ../../../../BitCloud/lib/libBc_All_Atmega256rfr2_Atmega256rfr2_Gcc.a(phyRxTxIndicator.o)
                0x0001b6e4                phyPllTxFilterOff
 .text.HAL_Delay
                0x0001b704        0x6 ../../../../BitCloud/lib/libHAL_MegaRf_Atmega256rfr2_8Mhz_Gcc.a(halDelay.o)
                0x0001b704                HAL_Delay
 .text.smallestTimerRequestHandler
                0x0001b70a       0x4e ../../../../BitCloud/lib/libHAL_MegaRf_Atmega256rfr2_8Mhz_Gcc.a(halAppClock.o)
 .text.halInitAppClock
                0x0001b758       0x2e ../../../../BitCloud/lib/libHAL_MegaRf_Atmega256rfr2_8Mhz_Gcc.a(halAppClock.o)
                0x0001b758                halInitAppClock
 .text.halAdjustSleepInterval
                0x0001b786       0x62 ../../../../BitCloud/lib/libHAL_MegaRf_Atmega256rfr2_8Mhz_Gcc.a(halAppClock.o)
                0x0001b786                halAdjustSleepInterval
 .text.halAppSystemTimeSynchronize
                0x0001b7e8       0x5e ../../../../BitCloud/lib/libHAL_MegaRf_Atmega256rfr2_8Mhz_Gcc.a(halAppClock.o)
                0x0001b7e8                halAppSystemTimeSynchronize
 .text.halGetTimeOfAppTimer
                0x0001b846       0x14 ../../../../BitCloud/lib/libHAL_MegaRf_Atmega256rfr2_8Mhz_Gcc.a(halAppClock.o)
                0x0001b846                halGetTimeOfAppTimer
 .text.__vector_42
                0x0001b85a       0x5a ../../../../BitCloud/lib/libHAL_MegaRf_Atmega256rfr2_8Mhz_Gcc.a(halAppClock.o)
                0x0001b85a                __vector_42
 .text.halPowerOn
                0x0001b8b4       0x4a ../../../../BitCloud/lib/libHAL_MegaRf_Atmega256rfr2_8Mhz_Gcc.a(halSleep.o)
                0x0001b8b4                halPowerOn
 .text.halPowerOff
                0x0001b8fe      0x13c ../../../../BitCloud/lib/libHAL_MegaRf_Atmega256rfr2_8Mhz_Gcc.a(halSleep.o)
                0x0001b8fe                halPowerOff
 .text.HAL_Sleep
                0x0001ba3a       0x48 ../../../../BitCloud/lib/libHAL_MegaRf_Atmega256rfr2_8Mhz_Gcc.a(halSleep.o)
                0x0001ba3a                HAL_Sleep
 .text.halWakeupHandler
                0x0001ba82       0xa6 ../../../../BitCloud/lib/libHAL_MegaRf_Atmega256rfr2_8Mhz_Gcc.a(halSleep.o)
                0x0001ba82                halWakeupHandler
 .text.HAL_IdleMode
                0x0001bb28       0x1e ../../../../BitCloud/lib/libHAL_MegaRf_Atmega256rfr2_8Mhz_Gcc.a(halSleep.o)
                0x0001bb28                HAL_IdleMode
 .text.halCalibrateInternalRc
                0x0001bb46       0xd0 ../../../../BitCloud/lib/libHAL_MegaRf_Atmega256rfr2_8Mhz_Gcc.a(calibration.o)
                0x0001bb46                halCalibrateInternalRc
 .text.HAL_CalibrateMainClock
                0x0001bc16        0xc ../../../../BitCloud/lib/libHAL_MegaRf_Atmega256rfr2_8Mhz_Gcc.a(calibration.o)
                0x0001bc16                HAL_CalibrateMainClock
 .text.halStartingCalibrate
                0x0001bc22       0x1c ../../../../BitCloud/lib/libHAL_MegaRf_Atmega256rfr2_8Mhz_Gcc.a(calibration.o)
                0x0001bc22                halStartingCalibrate
 .text.HAL_Init
                0x0001bc3e       0x3e ../../../../BitCloud/lib/libHAL_MegaRf_Atmega256rfr2_8Mhz_Gcc.a(halInit.o)
                0x0001bc3e                HAL_Init
 .text.HAL_EnableRxTxSwitcher
                0x0001bc7c        0x2 ../../../../BitCloud/lib/libHAL_MegaRf_Atmega256rfr2_8Mhz_Gcc.a(halRfCtrl.o)
                0x0001bc7c                HAL_EnableRxTxSwitcher
 .text.HAL_InitAntennaDiversity
                0x0001bc7e        0x2 ../../../../BitCloud/lib/libHAL_MegaRf_Atmega256rfr2_8Mhz_Gcc.a(halRfCtrl.o)
                0x0001bc7e                HAL_InitAntennaDiversity
 .text.HAL_EnableRxAntennaDiversity
                0x0001bc80        0x2 ../../../../BitCloud/lib/libHAL_MegaRf_Atmega256rfr2_8Mhz_Gcc.a(halRfCtrl.o)
                0x0001bc80                HAL_EnableRxAntennaDiversity
 .text.HAL_EnableTxAntennaDiversity
                0x0001bc82        0x2 ../../../../BitCloud/lib/libHAL_MegaRf_Atmega256rfr2_8Mhz_Gcc.a(halRfCtrl.o)
                0x0001bc82                HAL_EnableTxAntennaDiversity
 .text.HAL_SwitchLastTxAntenna
                0x0001bc84        0x2 ../../../../BitCloud/lib/libHAL_MegaRf_Atmega256rfr2_8Mhz_Gcc.a(halRfCtrl.o)
                0x0001bc84                HAL_SwitchLastTxAntenna
 .text.HAL_InitMacIsr
                0x0001bc86        0x8 ../../../../BitCloud/lib/libHAL_MegaRf_Atmega256rfr2_8Mhz_Gcc.a(halMacIsr.o)
                0x0001bc86                HAL_InitMacIsr
 .text.HAL_StartRtimer
                0x0001bc8e       0x70 ../../../../BitCloud/lib/libHAL_MegaRf_Atmega256rfr2_8Mhz_Gcc.a(halMacIsr.o)
                0x0001bc8e                HAL_StartRtimer
 .text.HAL_StopRtimer
                0x0001bcfe       0x14 ../../../../BitCloud/lib/libHAL_MegaRf_Atmega256rfr2_8Mhz_Gcc.a(halMacIsr.o)
                0x0001bcfe                HAL_StopRtimer
 .text.HAL_IsRtimerStopped
                0x0001bd12        0xe ../../../../BitCloud/lib/libHAL_MegaRf_Atmega256rfr2_8Mhz_Gcc.a(halMacIsr.o)
                0x0001bd12                HAL_IsRtimerStopped
 .text.__vector_43
                0x0001bd20       0xb8 ../../../../BitCloud/lib/libHAL_MegaRf_Atmega256rfr2_8Mhz_Gcc.a(halMacIsr.o)
                0x0001bd20                __vector_43
 .text.__vector_60
                0x0001bdd8       0x50 ../../../../BitCloud/lib/libHAL_MegaRf_Atmega256rfr2_8Mhz_Gcc.a(halMacIsr.o)
                0x0001bdd8                __vector_60
 .text.__vector_63
                0x0001be28       0x50 ../../../../BitCloud/lib/libHAL_MegaRf_Atmega256rfr2_8Mhz_Gcc.a(halMacIsr.o)
                0x0001be28                __vector_63
 .text.__vector_71
                0x0001be78       0x50 ../../../../BitCloud/lib/libHAL_MegaRf_Atmega256rfr2_8Mhz_Gcc.a(halMacIsr.o)
                0x0001be78                __vector_71
 .text.halGetTimeToNextAppTimer
                0x0001bec8       0xe8 ../../../../BitCloud/lib/libHAL_MegaRf_Atmega256rfr2_8Mhz_Gcc.a(appTimer.o)
                0x0001bec8                halGetTimeToNextAppTimer
 .text.halAppTimerHandler
                0x0001bfb0       0x9c ../../../../BitCloud/lib/libHAL_MegaRf_Atmega256rfr2_8Mhz_Gcc.a(appTimer.o)
                0x0001bfb0                halAppTimerHandler
 .text.HAL_StartAppTimer
                0x0001c04c       0x60 ../../../../BitCloud/lib/libHAL_MegaRf_Atmega256rfr2_8Mhz_Gcc.a(appTimer.o)
                0x0001c04c                HAL_StartAppTimer
 .text.HAL_StopAppTimer
                0x0001c0ac       0x44 ../../../../BitCloud/lib/libHAL_MegaRf_Atmega256rfr2_8Mhz_Gcc.a(appTimer.o)
                0x0001c0ac                HAL_StopAppTimer
 .text.HAL_GetSystemTime
                0x0001c0f0       0x4e ../../../../BitCloud/lib/libHAL_MegaRf_Atmega256rfr2_8Mhz_Gcc.a(appTimer.o)
                0x0001c0f0                HAL_GetSystemTime
 .text.halEmptyHandler
                0x0001c13e        0x2 ../../../../BitCloud/lib/libHAL_MegaRf_Atmega256rfr2_8Mhz_Gcc.a(halTaskManager.o)
 .text.halExternalHandler
                0x0001c140       0x10 ../../../../BitCloud/lib/libHAL_MegaRf_Atmega256rfr2_8Mhz_Gcc.a(halTaskManager.o)
                0x0001c140                halExternalHandler
 .text.HAL_TaskHandler
                0x0001c150       0xac ../../../../BitCloud/lib/libHAL_MegaRf_Atmega256rfr2_8Mhz_Gcc.a(halTaskManager.o)
                0x0001c150                HAL_TaskHandler
 .text.halSigUsartReceptionComplete
                0x0001c1fc       0x62 ../../../../BitCloud/lib/libHAL_MegaRf_Atmega256rfr2_8Mhz_Gcc.a(usart.o)
 .text.halUsartTaskUsart1Rxc
                0x0001c25e        0x4 ../../../../BitCloud/lib/libHAL_MegaRf_Atmega256rfr2_8Mhz_Gcc.a(usart.o)
 .text.halUsartTaskUsart0Rxc
                0x0001c262        0x4 ../../../../BitCloud/lib/libHAL_MegaRf_Atmega256rfr2_8Mhz_Gcc.a(usart.o)
 .text.halUsartHwController
                0x0001c266      0x17a ../../../../BitCloud/lib/libHAL_MegaRf_Atmega256rfr2_8Mhz_Gcc.a(usart.o)
 .text.halUsartTaskUsart1Dre
                0x0001c3e0        0x4 ../../../../BitCloud/lib/libHAL_MegaRf_Atmega256rfr2_8Mhz_Gcc.a(usart.o)
 .text.halUsartTaskUsart0Dre
                0x0001c3e4        0x4 ../../../../BitCloud/lib/libHAL_MegaRf_Atmega256rfr2_8Mhz_Gcc.a(usart.o)
 .text.hwControlPinsPollCallback
                0x0001c3e8        0x4 ../../../../BitCloud/lib/libHAL_MegaRf_Atmega256rfr2_8Mhz_Gcc.a(usart.o)
                0x0001c3e8                hwControlPinsPollCallback
 .text.halSetUsartClockPinDirection
                0x0001c3ec       0x36 ../../../../BitCloud/lib/libHAL_MegaRf_Atmega256rfr2_8Mhz_Gcc.a(usart.o)
 .text.halSigUsartHandler
                0x0001c422       0x6a ../../../../BitCloud/lib/libHAL_MegaRf_Atmega256rfr2_8Mhz_Gcc.a(usart.o)
                0x0001c422                halSigUsartHandler
 .text.halPostUsartTask
                0x0001c48c       0x48 ../../../../BitCloud/lib/libHAL_MegaRf_Atmega256rfr2_8Mhz_Gcc.a(usart.o)
                0x0001c48c                halPostUsartTask
 .text.halUsartRxBufferFiller
                0x0001c4d4       0xf4 ../../../../BitCloud/lib/libHAL_MegaRf_Atmega256rfr2_8Mhz_Gcc.a(usart.o)
                0x0001c4d4                halUsartRxBufferFiller
 .text.halSigUsartTransmissionComplete
                0x0001c5c8       0x70 ../../../../BitCloud/lib/libHAL_MegaRf_Atmega256rfr2_8Mhz_Gcc.a(usart.o)
                0x0001c5c8                halSigUsartTransmissionComplete
 .text.halUsartTaskUsart1Txc
                0x0001c638        0x4 ../../../../BitCloud/lib/libHAL_MegaRf_Atmega256rfr2_8Mhz_Gcc.a(usart.o)
 .text.halUsartTaskUsart0Txc
                0x0001c63c        0x4 ../../../../BitCloud/lib/libHAL_MegaRf_Atmega256rfr2_8Mhz_Gcc.a(usart.o)
 .text.halIsUsartChannelCorrect
                0x0001c640       0x10 ../../../../BitCloud/lib/libHAL_MegaRf_Atmega256rfr2_8Mhz_Gcc.a(usart.o)
                0x0001c640                halIsUsartChannelCorrect
 .text.HAL_OpenUsart
                0x0001c650       0xbe ../../../../BitCloud/lib/libHAL_MegaRf_Atmega256rfr2_8Mhz_Gcc.a(usart.o)
                0x0001c650                HAL_OpenUsart
 .text.HAL_WriteUsart
                0x0001c70e      0x11a ../../../../BitCloud/lib/libHAL_MegaRf_Atmega256rfr2_8Mhz_Gcc.a(usart.o)
                0x0001c70e                HAL_WriteUsart
 .text.halI2cBusReset
                0x0001c828       0x44 ../../../../BitCloud/lib/libHAL_MegaRf_Atmega256rfr2_8Mhz_Gcc.a(i2cPacket.o)
                0x0001c828                halI2cBusReset
 .text.halSendStartDoneI2c
                0x0001c86c       0x3a ../../../../BitCloud/lib/libHAL_MegaRf_Atmega256rfr2_8Mhz_Gcc.a(i2cPacket.o)
                0x0001c86c                halSendStartDoneI2c
 .text.halWriteData
                0x0001c8a6       0x76 ../../../../BitCloud/lib/libHAL_MegaRf_Atmega256rfr2_8Mhz_Gcc.a(i2cPacket.o)
                0x0001c8a6                halWriteData
 .text.halWriteInternalAddress
                0x0001c91c       0x56 ../../../../BitCloud/lib/libHAL_MegaRf_Atmega256rfr2_8Mhz_Gcc.a(i2cPacket.o)
                0x0001c91c                halWriteInternalAddress
 .text.halWriteDoneI2c
                0x0001c972       0x2e ../../../../BitCloud/lib/libHAL_MegaRf_Atmega256rfr2_8Mhz_Gcc.a(i2cPacket.o)
                0x0001c972                halWriteDoneI2c
 .text.halMasterReadWriteAddressAckI2c
                0x0001c9a0       0x36 ../../../../BitCloud/lib/libHAL_MegaRf_Atmega256rfr2_8Mhz_Gcc.a(i2cPacket.o)
                0x0001c9a0                halMasterReadWriteAddressAckI2c
 .text.halReadDoneI2c
                0x0001c9d6       0x56 ../../../../BitCloud/lib/libHAL_MegaRf_Atmega256rfr2_8Mhz_Gcc.a(i2cPacket.o)
                0x0001c9d6                halReadDoneI2c
 .text.halReadLastByteDoneI2c
                0x0001ca2c       0x64 ../../../../BitCloud/lib/libHAL_MegaRf_Atmega256rfr2_8Mhz_Gcc.a(i2cPacket.o)
                0x0001ca2c                halReadLastByteDoneI2c
 .text.halSig2WireSerialHandler
                0x0001ca90       0x5c ../../../../BitCloud/lib/libHAL_MegaRf_Atmega256rfr2_8Mhz_Gcc.a(i2cPacket.o)
                0x0001ca90                halSig2WireSerialHandler
 .text.HAL_ReadEeprom
                0x0001caec       0xe6 ../../../../BitCloud/lib/libHAL_MegaRf_Atmega256rfr2_8Mhz_Gcc.a(eeprom.o)
                0x0001caec                HAL_ReadEeprom
 .text.HAL_WriteEeprom
                0x0001cbd2      0x1ba ../../../../BitCloud/lib/libHAL_MegaRf_Atmega256rfr2_8Mhz_Gcc.a(eeprom.o)
                0x0001cbd2                HAL_WriteEeprom
 .text.HAL_IsEepromBusy
                0x0001cd8c        0xe ../../../../BitCloud/lib/libHAL_MegaRf_Atmega256rfr2_8Mhz_Gcc.a(eeprom.o)
                0x0001cd8c                HAL_IsEepromBusy
 .text.halSigEepromReadyHandler
                0x0001cd9a       0xb6 ../../../../BitCloud/lib/libHAL_MegaRf_Atmega256rfr2_8Mhz_Gcc.a(eeprom.o)
                0x0001cd9a                halSigEepromReadyHandler
 .text.halAddTimer
                0x0001ce50      0x1b6 ../../../../BitCloud/lib/libHAL_MegaRf_Atmega256rfr2_8Mhz_Gcc.a(timer.o)
                0x0001ce50                halAddTimer
 .text.halRemoveTimer
                0x0001d006       0x58 ../../../../BitCloud/lib/libHAL_MegaRf_Atmega256rfr2_8Mhz_Gcc.a(timer.o)
                0x0001d006                halRemoveTimer
 .text.halFindPrevTimer
                0x0001d05e       0x22 ../../../../BitCloud/lib/libHAL_MegaRf_Atmega256rfr2_8Mhz_Gcc.a(timer.o)
                0x0001d05e                halFindPrevTimer
 .text.halSigAdcHandler
                0x0001d080       0x32 ../../../../BitCloud/lib/libHAL_MegaRf_Atmega256rfr2_8Mhz_Gcc.a(adc.o)
                0x0001d080                halSigAdcHandler
 .text.halClearRealSpi
                0x0001d0b2        0x8 ../../../../BitCloud/lib/libHAL_MegaRf_Atmega256rfr2_8Mhz_Gcc.a(spi.o)
 .text.halSpiTxByteComplete
                0x0001d0ba       0x2e ../../../../BitCloud/lib/libHAL_MegaRf_Atmega256rfr2_8Mhz_Gcc.a(spi.o)
                0x0001d0ba                halSpiTxByteComplete
 .text.halSpiRxBufferFiller
                0x0001d0e8       0x50 ../../../../BitCloud/lib/libHAL_MegaRf_Atmega256rfr2_8Mhz_Gcc.a(spi.o)
                0x0001d0e8                halSpiRxBufferFiller
 .text.halSpiRxByteComplete
                0x0001d138       0x52 ../../../../BitCloud/lib/libHAL_MegaRf_Atmega256rfr2_8Mhz_Gcc.a(spi.o)
                0x0001d138                halSpiRxByteComplete
 .text.HAL_StartSystemSleep
                0x0001d18a       0x76 ../../../../BitCloud/lib/libHAL_MegaRf_Atmega256rfr2_8Mhz_Gcc.a(sleep.o)
                0x0001d18a                HAL_StartSystemSleep
 .text.halClearTimeControl
                0x0001d200       0x28 ../../../../BitCloud/lib/libHAL_MegaRf_Atmega256rfr2_8Mhz_Gcc.a(halSleepTimerClock.o)
                0x0001d200                halClearTimeControl
 .text.halWakeupFromIrq
                0x0001d228       0x26 ../../../../BitCloud/lib/libHAL_MegaRf_Atmega256rfr2_8Mhz_Gcc.a(halSleepTimerClock.o)
                0x0001d228                halWakeupFromIrq
 .text.halStartSleepTimerClock
                0x0001d24e       0x42 ../../../../BitCloud/lib/libHAL_MegaRf_Atmega256rfr2_8Mhz_Gcc.a(halSleepTimerClock.o)
                0x0001d24e                halStartSleepTimerClock
 .text.halStopSleepTimerClock
                0x0001d290       0x36 ../../../../BitCloud/lib/libHAL_MegaRf_Atmega256rfr2_8Mhz_Gcc.a(halSleepTimerClock.o)
                0x0001d290                halStopSleepTimerClock
 .text.halSetSleepTimerInterval
                0x0001d2c6       0x7a ../../../../BitCloud/lib/libHAL_MegaRf_Atmega256rfr2_8Mhz_Gcc.a(halSleepTimerClock.o)
                0x0001d2c6                halSetSleepTimerInterval
 .text.halGetTimeOfSleepTimer
                0x0001d340       0xb8 ../../../../BitCloud/lib/libHAL_MegaRf_Atmega256rfr2_8Mhz_Gcc.a(halSleepTimerClock.o)
                0x0001d340                halGetTimeOfSleepTimer
 .text.halSleepTimerFrequency
                0x0001d3f8        0xa ../../../../BitCloud/lib/libHAL_MegaRf_Atmega256rfr2_8Mhz_Gcc.a(halSleepTimerClock.o)
                0x0001d3f8                halSleepTimerFrequency
 .text.halSleepSystemTimeSynchronize
                0x0001d402       0x5e ../../../../BitCloud/lib/libHAL_MegaRf_Atmega256rfr2_8Mhz_Gcc.a(halSleepTimerClock.o)
                0x0001d402                halSleepSystemTimeSynchronize
 .text.__vector_13
                0x0001d460       0xac ../../../../BitCloud/lib/libHAL_MegaRf_Atmega256rfr2_8Mhz_Gcc.a(halSleepTimerClock.o)
                0x0001d460                __vector_13
 .text.__vector_15
                0x0001d50c      0x160 ../../../../BitCloud/lib/libHAL_MegaRf_Atmega256rfr2_8Mhz_Gcc.a(halSleepTimerClock.o)
                0x0001d50c                __vector_15
 .text.halSmRequestHandler
                0x0001d66c      0x194 ../../../../BitCloud/lib/libHAL_MegaRf_Atmega256rfr2_8Mhz_Gcc.a(halSecurityModule.o)
                0x0001d66c                halSmRequestHandler
 .text.halInitFreq
                0x0001d800       0x66 ../../../../BitCloud/lib/libHAL_MegaRf_Atmega256rfr2_8Mhz_Gcc.a(halClkCtrl.o)
                0x0001d800                halInitFreq
 .text.halGetClockSource
                0x0001d866        0x6 ../../../../BitCloud/lib/libHAL_MegaRf_Atmega256rfr2_8Mhz_Gcc.a(halClkCtrl.o)
                0x0001d866                halGetClockSource
 .text.halSetUsartConfig
                0x0001d86c       0xac ../../../../BitCloud/lib/libHAL_MegaRf_Atmega256rfr2_8Mhz_Gcc.a(halUsart.o)
                0x0001d86c                halSetUsartConfig
 .text.__vector_26
                0x0001d918       0x5e ../../../../BitCloud/lib/libHAL_MegaRf_Atmega256rfr2_8Mhz_Gcc.a(halUsart.o)
                0x0001d918                __vector_26
 .text.__vector_27
                0x0001d976       0x5c ../../../../BitCloud/lib/libHAL_MegaRf_Atmega256rfr2_8Mhz_Gcc.a(halUsart.o)
                0x0001d976                __vector_27
 .text.__vector_25
                0x0001d9d2       0x7a ../../../../BitCloud/lib/libHAL_MegaRf_Atmega256rfr2_8Mhz_Gcc.a(halUsart.o)
                0x0001d9d2                __vector_25
 .text.__vector_37
                0x0001da4c       0x5e ../../../../BitCloud/lib/libHAL_MegaRf_Atmega256rfr2_8Mhz_Gcc.a(halUsart.o)
                0x0001da4c                __vector_37
 .text.__vector_38
                0x0001daaa       0x5c ../../../../BitCloud/lib/libHAL_MegaRf_Atmega256rfr2_8Mhz_Gcc.a(halUsart.o)
                0x0001daaa                __vector_38
 .text.__vector_36
                0x0001db06       0x7a ../../../../BitCloud/lib/libHAL_MegaRf_Atmega256rfr2_8Mhz_Gcc.a(halUsart.o)
                0x0001db06                __vector_36
 .text.halSetIrqConfig
                0x0001db80       0xbe ../../../../BitCloud/lib/libHAL_MegaRf_Atmega256rfr2_8Mhz_Gcc.a(halIrq.o)
                0x0001db80                halSetIrqConfig
 .text.__vector_1
                0x0001dc3e       0x58 ../../../../BitCloud/lib/libHAL_MegaRf_Atmega256rfr2_8Mhz_Gcc.a(halIrq.o)
                0x0001dc3e                __vector_1
 .text.__vector_2
                0x0001dc96       0x58 ../../../../BitCloud/lib/libHAL_MegaRf_Atmega256rfr2_8Mhz_Gcc.a(halIrq.o)
                0x0001dc96                __vector_2
 .text.__vector_3
                0x0001dcee       0x58 ../../../../BitCloud/lib/libHAL_MegaRf_Atmega256rfr2_8Mhz_Gcc.a(halIrq.o)
                0x0001dcee                __vector_3
 .text.__vector_4
                0x0001dd46       0x58 ../../../../BitCloud/lib/libHAL_MegaRf_Atmega256rfr2_8Mhz_Gcc.a(halIrq.o)
                0x0001dd46                __vector_4
 .text.__vector_5
                0x0001dd9e       0x58 ../../../../BitCloud/lib/libHAL_MegaRf_Atmega256rfr2_8Mhz_Gcc.a(halIrq.o)
                0x0001dd9e                __vector_5
 .text.__vector_6
                0x0001ddf6       0x58 ../../../../BitCloud/lib/libHAL_MegaRf_Atmega256rfr2_8Mhz_Gcc.a(halIrq.o)
                0x0001ddf6                __vector_6
 .text.__vector_7
                0x0001de4e       0x58 ../../../../BitCloud/lib/libHAL_MegaRf_Atmega256rfr2_8Mhz_Gcc.a(halIrq.o)
                0x0001de4e                __vector_7
 .text.__vector_8
                0x0001dea6       0x58 ../../../../BitCloud/lib/libHAL_MegaRf_Atmega256rfr2_8Mhz_Gcc.a(halIrq.o)
                0x0001dea6                __vector_8
 .text.__vector_39
                0x0001defe       0xb2 ../../../../BitCloud/lib/libHAL_MegaRf_Atmega256rfr2_8Mhz_Gcc.a(halTwi.o)
                0x0001defe                __vector_39
 .text.halEepromWrite
                0x0001dfb0       0x1c ../../../../BitCloud/lib/libHAL_MegaRf_Atmega256rfr2_8Mhz_Gcc.a(halEeprom.o)
                0x0001dfb0                halEepromWrite
 .text.__vector_30
                0x0001dfcc       0x52 ../../../../BitCloud/lib/libHAL_MegaRf_Atmega256rfr2_8Mhz_Gcc.a(halEeprom.o)
                0x0001dfcc                __vector_30
 .text.__vector_29
                0x0001e01e       0xde ../../../../BitCloud/lib/libHAL_MegaRf_Atmega256rfr2_8Mhz_Gcc.a(halAdc.o)
                0x0001e01e                __vector_29
 .text.__vector_24
                0x0001e0fc       0x9a ../../../../BitCloud/lib/libHAL_MegaRf_Atmega256rfr2_8Mhz_Gcc.a(halSpi.o)
                0x0001e0fc                __vector_24
 .text.HAL_StartSleepTimer
                0x0001e196       0x72 ../../../../BitCloud/lib/libHAL_MegaRf_Atmega256rfr2_8Mhz_Gcc.a(sleepTimer.o)
                0x0001e196                HAL_StartSleepTimer
 .text.halAsyncTimerHandler
                0x0001e208       0x62 ../../../../BitCloud/lib/libHAL_MegaRf_Atmega256rfr2_8Mhz_Gcc.a(sleepTimer.o)
                0x0001e208                halAsyncTimerHandler
 .text.phyDispatcheRTimerEvent
                0x0001e26a       0xd0 ../../../../BitCloud/lib/libBc_All_Atmega256rfr2_Atmega256rfr2_Gcc.a(phyRtimerIrqDispatcher.o)
                0x0001e26a                phyDispatcheRTimerEvent
 .text.libgcc.mul
                0x0001e33a       0x1e c:/program files (x86)/atmel/atmel toolchain/avr8 gcc/native/3.4.1061/avr8-gnu-toolchain/bin/../lib/gcc/avr/4.8.1/avr6\libgcc.a(_mulsi3.o)
                0x0001e33a                __mulsi3
 .text.libgcc.div
                0x0001e358       0x18 c:/program files (x86)/atmel/atmel toolchain/avr8 gcc/native/3.4.1061/avr8-gnu-toolchain/bin/../lib/gcc/avr/4.8.1/avr6\libgcc.a(_udivmodqi4.o)
                0x0001e358                __udivmodqi4
 .text.libgcc.div
                0x0001e370       0x28 c:/program files (x86)/atmel/atmel toolchain/avr8 gcc/native/3.4.1061/avr8-gnu-toolchain/bin/../lib/gcc/avr/4.8.1/avr6\libgcc.a(_udivmodhi4.o)
                0x0001e370                __udivmodhi4
 .text.libgcc.div
                0x0001e398       0x26 c:/program files (x86)/atmel/atmel toolchain/avr8 gcc/native/3.4.1061/avr8-gnu-toolchain/bin/../lib/gcc/avr/4.8.1/avr6\libgcc.a(_divmodhi4.o)
                0x0001e398                _div
                0x0001e398                __divmodhi4
 .text.libgcc.div
                0x0001e3be       0x44 c:/program files (x86)/atmel/atmel toolchain/avr8 gcc/native/3.4.1061/avr8-gnu-toolchain/bin/../lib/gcc/avr/4.8.1/avr6\libgcc.a(_udivmodsi4.o)
                0x0001e3be                __udivmodsi4
 .text.libgcc.div
                0x0001e402       0x28 c:/program files (x86)/atmel/atmel toolchain/avr8 gcc/native/3.4.1061/avr8-gnu-toolchain/bin/../lib/gcc/avr/4.8.1/avr6\libgcc.a(_divmodsi4.o)
                0x0001e402                __divmodsi4
 .text.libgcc.div
                0x0001e42a       0x10 c:/program files (x86)/atmel/atmel toolchain/avr8 gcc/native/3.4.1061/avr8-gnu-toolchain/bin/../lib/gcc/avr/4.8.1/avr6\libgcc.a(_negsi2.o)
                0x0001e42a                __negsi2
 .text.libgcc   0x0001e43a        0xc c:/program files (x86)/atmel/atmel toolchain/avr8 gcc/native/3.4.1061/avr8-gnu-toolchain/bin/../lib/gcc/avr/4.8.1/avr6\libgcc.a(_tablejump.o)
                0x0001e43a                __tablejump2__
                0x0001e43e                __tablejump__
 .text.libgcc.mul
                0x0001e446       0x1e c:/program files (x86)/atmel/atmel toolchain/avr8 gcc/native/3.4.1061/avr8-gnu-toolchain/bin/../lib/gcc/avr/4.8.1/avr6\libgcc.a(_umulhisi3.o)
                0x0001e446                __umulhisi3
 .text.libgcc.mul
                0x0001e464        0xc c:/program files (x86)/atmel/atmel toolchain/avr8 gcc/native/3.4.1061/avr8-gnu-toolchain/bin/../lib/gcc/avr/4.8.1/avr6\libgcc.a(_usmulhisi3.o)
                0x0001e464                __usmulhisi3
                0x0001e466                __usmulhisi3_tail
 .text.libgcc.mul
                0x0001e470       0x14 c:/program files (x86)/atmel/atmel toolchain/avr8 gcc/native/3.4.1061/avr8-gnu-toolchain/bin/../lib/gcc/avr/4.8.1/avr6\libgcc.a(_muluhisi3.o)
                0x0001e470                __muluhisi3
 .text.libgcc.mul
                0x0001e484        0xc c:/program files (x86)/atmel/atmel toolchain/avr8 gcc/native/3.4.1061/avr8-gnu-toolchain/bin/../lib/gcc/avr/4.8.1/avr6\libgcc.a(_mulshisi3.o)
                0x0001e484                __mulshisi3
                0x0001e488                __mulohisi3
 .text.libgcc.prologue
                0x0001e490       0x38 c:/program files (x86)/atmel/atmel toolchain/avr8 gcc/native/3.4.1061/avr8-gnu-toolchain/bin/../lib/gcc/avr/4.8.1/avr6\libgcc.a(_prologue.o)
                0x0001e490                __prologue_saves__
 .text.libgcc.prologue
                0x0001e4c8       0x36 c:/program files (x86)/atmel/atmel toolchain/avr8 gcc/native/3.4.1061/avr8-gnu-toolchain/bin/../lib/gcc/avr/4.8.1/avr6\libgcc.a(_epilogue.o)
                0x0001e4c8                __epilogue_restores__
 .text.libgcc.builtins
                0x0001e4fe       0x32 c:/program files (x86)/atmel/atmel toolchain/avr8 gcc/native/3.4.1061/avr8-gnu-toolchain/bin/../lib/gcc/avr/4.8.1/avr6\libgcc.a(_ashldi3.o)
                0x0001e4fe                __ashldi3
 .text.libgcc   0x0001e530       0x12 c:/program files (x86)/atmel/atmel toolchain/avr8 gcc/native/3.4.1061/avr8-gnu-toolchain/bin/../lib/gcc/avr/4.8.1/avr6\libgcc.a(_adddi3.o)
                0x0001e530                __adddi3
 .text.libgcc   0x0001e542       0x12 c:/program files (x86)/atmel/atmel toolchain/avr8 gcc/native/3.4.1061/avr8-gnu-toolchain/bin/../lib/gcc/avr/4.8.1/avr6\libgcc.a(_subdi3.o)
                0x0001e542                __subdi3
 .text.libgcc   0x0001e554       0x12 c:/program files (x86)/atmel/atmel toolchain/avr8 gcc/native/3.4.1061/avr8-gnu-toolchain/bin/../lib/gcc/avr/4.8.1/avr6\libgcc.a(_cmpdi2.o)
                0x0001e554                __cmpdi2
 .text.libgcc   0x0001e566       0x18 c:/program files (x86)/atmel/atmel toolchain/avr8 gcc/native/3.4.1061/avr8-gnu-toolchain/bin/../lib/gcc/avr/4.8.1/avr6\libgcc.a(_cmpdi2_s8.o)
                0x0001e566                __cmpdi2_s8
 .text.avr-libc
                0x0001e57e       0xae c:/program files (x86)/atmel/atmel toolchain/avr8 gcc/native/3.4.1061/avr8-gnu-toolchain/bin/../lib/gcc/avr/4.8.1/../../../../avr/lib/avr6\libc.a(rand.o)
                0x0001e60e                rand_r
                0x0001e610                rand
                0x0001e616                srand
 .text.avr-libc
                0x0001e62c       0x12 c:/program files (x86)/atmel/atmel toolchain/avr8 gcc/native/3.4.1061/avr8-gnu-toolchain/bin/../lib/gcc/avr/4.8.1/../../../../avr/lib/avr6\libc.a(memcpy_P.o)
                0x0001e62c                memcpy_P
 .text.avr-libc
                0x0001e63e       0x1a c:/program files (x86)/atmel/atmel toolchain/avr8 gcc/native/3.4.1061/avr8-gnu-toolchain/bin/../lib/gcc/avr/4.8.1/../../../../avr/lib/avr6\libc.a(memcmp.o)
                0x0001e63e                memcmp
 .text.avr-libc
                0x0001e658       0x12 c:/program files (x86)/atmel/atmel toolchain/avr8 gcc/native/3.4.1061/avr8-gnu-toolchain/bin/../lib/gcc/avr/4.8.1/../../../../avr/lib/avr6\libc.a(memcpy.o)
                0x0001e658                memcpy
 .text.avr-libc
                0x0001e66a       0x22 c:/program files (x86)/atmel/atmel toolchain/avr8 gcc/native/3.4.1061/avr8-gnu-toolchain/bin/../lib/gcc/avr/4.8.1/../../../../avr/lib/avr6\libc.a(memmove.o)
                0x0001e66a                memmove
 .text.avr-libc
                0x0001e68c        0xe c:/program files (x86)/atmel/atmel toolchain/avr8 gcc/native/3.4.1061/avr8-gnu-toolchain/bin/../lib/gcc/avr/4.8.1/../../../../avr/lib/avr6\libc.a(memset.o)
                0x0001e68c                memset
                0x0001e69a                PROVIDE (__text_end, .)

.data           0x00800200      0x18c load address 0x0001e69a
                0x00800200                PROVIDE (__data_start, .)
 *(.data*)
 .data          0x00800200       0x1b All_MegaRf_Atmega256rfr2_8Mhz_Gcc/Obj/sysUtils.o
 .data          0x0080021b        0x2 All_MegaRf_Atmega256rfr2_8Mhz_Gcc/Obj/sysTaskManager.o
                0x0080021b                SYS_taskMask
 .data          0x0080021d        0xc ../../../../BitCloud/lib/libBc_All_Atmega256rfr2_Atmega256rfr2_Gcc.a(aps.o)
 .data          0x00800229        0x2 ../../../../BitCloud/lib/libBc_All_Atmega256rfr2_Atmega256rfr2_Gcc.a(machwdManager.o)
 .data          0x0080022b        0xd ../../../../BitCloud/lib/libBc_All_Atmega256rfr2_Atmega256rfr2_Gcc.a(machwiManager.o)
 .data          0x00800238       0x24 ../../../../BitCloud/lib/libBc_All_Atmega256rfr2_Atmega256rfr2_Gcc.a(nwk.o)
 .data          0x0080025c        0x1 ../../../../BitCloud/lib/libBc_All_Atmega256rfr2_Atmega256rfr2_Gcc.a(phyAntDiversity.o)
 .data          0x0080025d       0x25 ../../../../BitCloud/lib/libBc_All_Atmega256rfr2_Atmega256rfr2_Gcc.a(zdo.o)
 .data          0x00800282        0x2 ../../../../BitCloud/lib/libBc_All_Atmega256rfr2_Atmega256rfr2_Gcc.a(machwdHandlerCtrl.o)
                0x00800282                __handlersMask
 .data          0x00800284        0xc ../../../../BitCloud/lib/libHAL_MegaRf_Atmega256rfr2_8Mhz_Gcc.a(halAppClock.o)
 .data          0x00800290        0x2 ../../../../BitCloud/lib/libHAL_MegaRf_Atmega256rfr2_8Mhz_Gcc.a(halTaskManager.o)
                0x00800290                halAcceptedTasks
 .data          0x00800292        0x1 ../../../../BitCloud/lib/libHAL_MegaRf_Atmega256rfr2_8Mhz_Gcc.a(usart.o)
 .data          0x00800293        0x4 c:/program files (x86)/atmel/atmel toolchain/avr8 gcc/native/3.4.1061/avr8-gnu-toolchain/bin/../lib/gcc/avr/4.8.1/../../../../avr/lib/avr6\libc.a(rand.o)
 *(.rodata*)
 .rodata.str1.1
                0x00800297       0xb1 All_MegaRf_Atmega256rfr2_8Mhz_Gcc/Obj/app.o
 .rodata        0x00800348       0x1c All_MegaRf_Atmega256rfr2_8Mhz_Gcc/Obj/sysTaskManager.o
 .rodata        0x00800364       0x12 ../../../../BitCloud/lib/libBc_All_Atmega256rfr2_Atmega256rfr2_Gcc.a(machwdTrxCtrl.o)
 .rodata        0x00800376        0x7 ../../../../BitCloud/lib/libBc_All_Atmega256rfr2_Atmega256rfr2_Gcc.a(nwk.o)
 .rodata        0x0080037d        0x7 ../../../../BitCloud/lib/libBc_All_Atmega256rfr2_Atmega256rfr2_Gcc.a(phyRfIrqDispatcher.o)
 .rodata        0x00800384        0x1 ../../../../BitCloud/lib/libBc_All_Atmega256rfr2_Atmega256rfr2_Gcc.a(zdo.o)
 .rodata        0x00800385        0x7 ../../../../BitCloud/lib/libBc_All_Atmega256rfr2_Atmega256rfr2_Gcc.a(machwiBanNode.o)
 *(.gnu.linkonce.d*)
                0x0080038c                . = ALIGN (0x2)
                0x0080038c                PROVIDE (__data_end, .)

.bss            0x0080038c     0x1488 load address 0x0001e826
                0x0080038c                PROVIDE (__bss_start, .)
 *(.bss*)
 .bss           0x0080038c       0x1a All_MegaRf_Atmega256rfr2_8Mhz_Gcc/Obj/app.o
 .bss           0x008003a6      0x131 All_MegaRf_Atmega256rfr2_8Mhz_Gcc/Obj/usartManager.o
 .bss           0x008004d7        0x9 All_MegaRf_Atmega256rfr2_8Mhz_Gcc/Obj/stdPdsWriteData.o
 .bss           0x008004e0        0xa All_MegaRf_Atmega256rfr2_8Mhz_Gcc/Obj/sysIdleHandler.o
 .bss           0x008004ea        0xa All_MegaRf_Atmega256rfr2_8Mhz_Gcc/Obj/sysEventsHandler.o
 .bss           0x008004f4        0x2 All_MegaRf_Atmega256rfr2_8Mhz_Gcc/Obj/sysTaskManager.o
                0x008004f4                SYS_taskFlag
 .bss           0x008004f6       0x37 ../../../../BitCloud/lib/libBc_All_Atmega256rfr2_Atmega256rfr2_Gcc.a(aps.o)
                0x008004f6                apsState
 .bss           0x0080052d        0x4 ../../../../BitCloud/lib/libBc_All_Atmega256rfr2_Atmega256rfr2_Gcc.a(machwdManager.o)
                0x0080052d                __wasPostTask
 .bss           0x00800531        0x1 ../../../../BitCloud/lib/libBc_All_Atmega256rfr2_Atmega256rfr2_Gcc.a(machwdRegAccessHandler.o)
 .bss           0x00800532        0x1 ../../../../BitCloud/lib/libBc_All_Atmega256rfr2_Atmega256rfr2_Gcc.a(machwdRndHandler.o)
 .bss           0x00800533        0x4 ../../../../BitCloud/lib/libBc_All_Atmega256rfr2_Atmega256rfr2_Gcc.a(machwdSetHandler.o)
 .bss           0x00800537        0x1 ../../../../BitCloud/lib/libBc_All_Atmega256rfr2_Atmega256rfr2_Gcc.a(machwdTrxHandler.o)
 .bss           0x00800538        0x2 ../../../../BitCloud/lib/libBc_All_Atmega256rfr2_Atmega256rfr2_Gcc.a(machwdTxFrameHandler.o)
                0x00800538                machwdTxFrameHandlerSubState
 .bss           0x0080053a        0x1 ../../../../BitCloud/lib/libBc_All_Atmega256rfr2_Atmega256rfr2_Gcc.a(machwiScanHandler.o)
 .bss           0x0080053b       0x14 ../../../../BitCloud/lib/libBc_All_Atmega256rfr2_Atmega256rfr2_Gcc.a(nwk.o)
 .bss           0x0080054f        0x1 ../../../../BitCloud/lib/libBc_All_Atmega256rfr2_Atmega256rfr2_Gcc.a(phyRfIrqDispatcher.o)
 .bss           0x00800550        0x1 ../../../../BitCloud/lib/libBc_All_Atmega256rfr2_Atmega256rfr2_Gcc.a(phySet.o)
 .bss           0x00800551        0x1 ../../../../BitCloud/lib/libBc_All_Atmega256rfr2_Atmega256rfr2_Gcc.a(phyStateMachine.o)
                0x00800551                __wasRequest
 .bss           0x00800552       0x19 ../../../../BitCloud/lib/libBc_All_Atmega256rfr2_Atmega256rfr2_Gcc.a(zdo.o)
 .bss           0x0080056b        0x2 ../../../../BitCloud/lib/libBc_All_Atmega256rfr2_Atmega256rfr2_Gcc.a(machwdBatMonHandler.o)
                0x0080056b                batMonSubState
 .bss           0x0080056d        0x1 ../../../../BitCloud/lib/libBc_All_Atmega256rfr2_Atmega256rfr2_Gcc.a(machwdCalibHandler.o)
 .bss           0x0080056e        0x1 ../../../../BitCloud/lib/libBc_All_Atmega256rfr2_Atmega256rfr2_Gcc.a(machwdEdHandler.o)
 .bss           0x0080056f        0x4 ../../../../BitCloud/lib/libBc_All_Atmega256rfr2_Atmega256rfr2_Gcc.a(machwdHandlerCtrl.o)
                0x0080056f                __macRequest
                0x00800571                __handlers
 .bss           0x00800573        0x6 ../../../../BitCloud/lib/libHAL_MegaRf_Atmega256rfr2_8Mhz_Gcc.a(halAppClock.o)
                0x00800573                halAppTimeOvfw
 .bss           0x00800579        0x4 ../../../../BitCloud/lib/libHAL_MegaRf_Atmega256rfr2_8Mhz_Gcc.a(halSleep.o)
 .bss           0x0080057d        0x2 ../../../../BitCloud/lib/libHAL_MegaRf_Atmega256rfr2_8Mhz_Gcc.a(appTimer.o)
 .bss           0x0080057f        0x2 ../../../../BitCloud/lib/libHAL_MegaRf_Atmega256rfr2_8Mhz_Gcc.a(halTaskManager.o)
                0x0080057f                halTaskFlags
 .bss           0x00800581       0x15 ../../../../BitCloud/lib/libHAL_MegaRf_Atmega256rfr2_8Mhz_Gcc.a(usart.o)
                0x00800581                dtrWakeUpCallback
                0x00800583                halEnableDtrWakeUp
                0x00800584                halPointDescrip
 .bss           0x00800596        0x2 ../../../../BitCloud/lib/libHAL_MegaRf_Atmega256rfr2_8Mhz_Gcc.a(i2cPacket.o)
 .bss           0x00800598        0x1 ../../../../BitCloud/lib/libHAL_MegaRf_Atmega256rfr2_8Mhz_Gcc.a(eeprom.o)
                0x00800598                halEepromState
 .bss           0x00800599        0x2 ../../../../BitCloud/lib/libHAL_MegaRf_Atmega256rfr2_8Mhz_Gcc.a(adc.o)
                0x00800599                adcDesc
 .bss           0x0080059b       0x11 ../../../../BitCloud/lib/libHAL_MegaRf_Atmega256rfr2_8Mhz_Gcc.a(sleep.o)
                0x0080059b                halSleepControl
 .bss           0x008005ac        0xe ../../../../BitCloud/lib/libHAL_MegaRf_Atmega256rfr2_8Mhz_Gcc.a(halSleepTimerClock.o)
                0x008005ac                halSleepTimerOvfw
 .bss           0x008005ba        0x2 ../../../../BitCloud/lib/libHAL_MegaRf_Atmega256rfr2_8Mhz_Gcc.a(halSecurityModule.o)
 .bss           0x008005bc        0x1 ../../../../BitCloud/lib/libHAL_MegaRf_Atmega256rfr2_8Mhz_Gcc.a(halClkCtrl.o)
 .bss           0x008005bd       0x10 ../../../../BitCloud/lib/libHAL_MegaRf_Atmega256rfr2_8Mhz_Gcc.a(halIrq.o)
                0x008005bd                IrqCallbackList
 .bss           0x008005cd        0x2 ../../../../BitCloud/lib/libHAL_MegaRf_Atmega256rfr2_8Mhz_Gcc.a(halSpi.o)
                0x008005cd                halRealSpiDescripPointer
 *(COMMON)
 COMMON         0x008005cf       0x2e All_MegaRf_Atmega256rfr2_8Mhz_Gcc/Obj/app.o
                0x008005cf                usartDescriptor
                0x008005f0                sendTimer
 COMMON         0x008005fd       0x31 All_MegaRf_Atmega256rfr2_8Mhz_Gcc/Obj/stdPdsMem.o
                0x008005fd                pdsMem
 COMMON         0x0080062e        0x8 All_MegaRf_Atmega256rfr2_8Mhz_Gcc/Obj/sysAssert.o
                0x0080062e                s_pAssertSubscriber
                0x00800630                gAssertDbgCode
                0x00800632                gAssertParam
 COMMON         0x00800636      0xd7c All_MegaRf_Atmega256rfr2_8Mhz_Gcc/Obj/csMem.o
                0x00800636                stackBuffers
                0x00801296                csAIB
                0x00801299                csZIB
                0x008012b0                csPIB
                0x008012e8                csSIB
                0x0080132b                csNIB
 COMMON         0x008013b2       0xca ../../../../BitCloud/lib/libBc_All_Atmega256rfr2_Atmega256rfr2_Gcc.a(aps.o)
                0x008013b2                apsMem
 COMMON         0x0080147c        0x1 ../../../../BitCloud/lib/libBc_All_Atmega256rfr2_Atmega256rfr2_Gcc.a(machwdTrxCtrl.o)
                0x0080147c                __sourceHandler
 COMMON         0x0080147d        0x3 ../../../../BitCloud/lib/libBc_All_Atmega256rfr2_Atmega256rfr2_Gcc.a(machwdTxFrameHandler.o)
                0x0080147d                machwdTxFrameHandlerRetryCounter
                0x0080147e                machwdTxFrameHandlerRandomSeed
 COMMON         0x00801480      0x1df ../../../../BitCloud/lib/libBc_All_Atmega256rfr2_Atmega256rfr2_Gcc.a(nwk.o)
                0x00801480                nwkMem
 COMMON         0x0080165f       0xbf ../../../../BitCloud/lib/libBc_All_Atmega256rfr2_Atmega256rfr2_Gcc.a(zdo.o)
                0x0080165f                zdoMem
 COMMON         0x0080171e       0x9b ../../../../BitCloud/lib/libBc_All_Atmega256rfr2_Atmega256rfr2_Gcc.a(macMem.o)
                0x0080171e                macMem
 COMMON         0x008017b9        0x1 ../../../../BitCloud/lib/libBc_All_Atmega256rfr2_Atmega256rfr2_Gcc.a(machwdEdHandler.o)
                0x008017b9                __energyLevel
 COMMON         0x008017ba       0x21 ../../../../BitCloud/lib/libBc_All_Atmega256rfr2_Atmega256rfr2_Gcc.a(machwdFrameRoutine.o)
                0x008017ba                txBuffer
 COMMON         0x008017db       0x20 ../../../../BitCloud/lib/libBc_All_Atmega256rfr2_Atmega256rfr2_Gcc.a(machwiTransactionHash.o)
                0x008017db                pendingTransactionsHash
 COMMON         0x008017fb        0x5 ../../../../BitCloud/lib/libHAL_MegaRf_Atmega256rfr2_8Mhz_Gcc.a(halMacIsr.o)
                0x008017fb                __rtimer
 COMMON         0x00801800        0x2 ../../../../BitCloud/lib/libHAL_MegaRf_Atmega256rfr2_8Mhz_Gcc.a(halTaskManager.o)
                0x00801800                extHandler
 COMMON         0x00801802        0x8 ../../../../BitCloud/lib/libHAL_MegaRf_Atmega256rfr2_8Mhz_Gcc.a(eeprom.o)
                0x00801802                halEepromParams
                0x00801808                halEepromDone
 COMMON         0x0080180a        0xa ../../../../BitCloud/lib/libHAL_MegaRf_Atmega256rfr2_8Mhz_Gcc.a(halSpi.o)
                0x0080180a                rxSlaveBuffer
                0x00801814                PROVIDE (__bss_end, .)

.noinit         0x00801814        0x1 load address 0x0001fcae
 *(.noinit*)
 .noinit        0x00801814        0x1 ../../../../BitCloud/lib/WdtInitatmega256rfr2_Gcc.o
                0x00801814                halResetReason
                0x00801815                PROVIDE (__heap_start, .)
                0x00801815                __stack_start = .
                0x0001e69a                __data_load_start = LOADADDR (.data)
                0x0001e826                __data_load_end = (__data_load_start + SIZEOF (.data))

.access_section
 *(.access_section*)
 *(.access_section*)

.boot_section
 *(.boot_section*)

.eeprom         0x00810000     0x2000
 FILL mask 0xff
                0x00810000        0x1 BYTE 0xff
                0x00812000                . = ((. + 0x2000) - 0x1)
 *fill*         0x00810001     0x1fff ff

/DISCARD/
 *(.init9)
 *(.fini9)
Address of section .data set to 0x800200
LOAD All_MegaRf_Atmega256rfr2_8Mhz_Gcc/Obj/app.o
LOAD All_MegaRf_Atmega256rfr2_8Mhz_Gcc/Obj/usartManager.o
LOAD All_MegaRf_Atmega256rfr2_8Mhz_Gcc/Obj/stdPdsMemAccess.o
LOAD All_MegaRf_Atmega256rfr2_8Mhz_Gcc/Obj/stdPdsTimer.o
LOAD All_MegaRf_Atmega256rfr2_8Mhz_Gcc/Obj/stdPdsMem.o
LOAD All_MegaRf_Atmega256rfr2_8Mhz_Gcc/Obj/stdPdsWriteData.o
LOAD All_MegaRf_Atmega256rfr2_8Mhz_Gcc/Obj/stdPdsCrcService.o
LOAD All_MegaRf_Atmega256rfr2_8Mhz_Gcc/Obj/stdPdsInit.o
LOAD All_MegaRf_Atmega256rfr2_8Mhz_Gcc/Obj/stdPdsEvents.o
LOAD All_MegaRf_Atmega256rfr2_8Mhz_Gcc/Obj/stdPdsDataServer.o
LOAD All_MegaRf_Atmega256rfr2_8Mhz_Gcc/Obj/fakePds.o
LOAD All_MegaRf_Atmega256rfr2_8Mhz_Gcc/Obj/wlPdsTypesConverter.o
LOAD All_MegaRf_Atmega256rfr2_8Mhz_Gcc/Obj/wlPdsTaskManager.o
LOAD All_MegaRf_Atmega256rfr2_8Mhz_Gcc/Obj/wlPdsSecurity.o
LOAD All_MegaRf_Atmega256rfr2_8Mhz_Gcc/Obj/wlPdsInit.o
LOAD All_MegaRf_Atmega256rfr2_8Mhz_Gcc/Obj/wlPdsDataServer.o
LOAD All_MegaRf_Atmega256rfr2_8Mhz_Gcc/Obj/S_Nv.o
LOAD All_MegaRf_Atmega256rfr2_8Mhz_Gcc/Obj/S_XNv.o
LOAD All_MegaRf_Atmega256rfr2_8Mhz_Gcc/Obj/S_Nv-External.o
LOAD All_MegaRf_Atmega256rfr2_8Mhz_Gcc/Obj/D_Nv.o
LOAD All_MegaRf_Atmega256rfr2_8Mhz_Gcc/Obj/S_Nv_Stub.o
LOAD All_MegaRf_Atmega256rfr2_8Mhz_Gcc/Obj/sysIdleHandler.o
LOAD All_MegaRf_Atmega256rfr2_8Mhz_Gcc/Obj/sysSleep.o
LOAD All_MegaRf_Atmega256rfr2_8Mhz_Gcc/Obj/sysStat.o
LOAD All_MegaRf_Atmega256rfr2_8Mhz_Gcc/Obj/sysEventsHandler.o
LOAD All_MegaRf_Atmega256rfr2_8Mhz_Gcc/Obj/sysQueue.o
LOAD All_MegaRf_Atmega256rfr2_8Mhz_Gcc/Obj/sysUtils.o
LOAD All_MegaRf_Atmega256rfr2_8Mhz_Gcc/Obj/sysAssert.o
LOAD All_MegaRf_Atmega256rfr2_8Mhz_Gcc/Obj/sysDuplicateTable.o
LOAD All_MegaRf_Atmega256rfr2_8Mhz_Gcc/Obj/sysInit.o
LOAD All_MegaRf_Atmega256rfr2_8Mhz_Gcc/Obj/sysTaskManager.o
LOAD All_MegaRf_Atmega256rfr2_8Mhz_Gcc/Obj/dbg.o
LOAD All_MegaRf_Atmega256rfr2_8Mhz_Gcc/Obj/sysMutex.o
LOAD All_MegaRf_Atmega256rfr2_8Mhz_Gcc/Obj/sysTimer.o
LOAD All_MegaRf_Atmega256rfr2_8Mhz_Gcc/Obj/bspTaskManager.o
LOAD All_MegaRf_Atmega256rfr2_8Mhz_Gcc/Obj/leds.o
LOAD All_MegaRf_Atmega256rfr2_8Mhz_Gcc/Obj/fakeBSP.o
LOAD All_MegaRf_Atmega256rfr2_8Mhz_Gcc/Obj/usbFifoVirtualUsart.o
LOAD All_MegaRf_Atmega256rfr2_8Mhz_Gcc/Obj/usbFifoFT245RL.o
LOAD All_MegaRf_Atmega256rfr2_8Mhz_Gcc/Obj/csPersistentMem.o
LOAD All_MegaRf_Atmega256rfr2_8Mhz_Gcc/Obj/csMem.o
LOAD All_MegaRf_Atmega256rfr2_8Mhz_Gcc/Obj/configServer.o
START GROUP
LOAD ../../../../BitCloud/lib/libBc_All_Atmega256rfr2_Atmega256rfr2_Gcc.a
LOAD ../../../../BitCloud/lib/libHAL_MegaRf_Atmega256rfr2_8Mhz_Gcc.a
LOAD ../../../../BitCloud/lib/WdtInitatmega256rfr2_Gcc.o
END GROUP
START GROUP
LOAD c:/program files (x86)/atmel/atmel toolchain/avr8 gcc/native/3.4.1061/avr8-gnu-toolchain/bin/../lib/gcc/avr/4.8.1/avr6\libgcc.a
LOAD c:/program files (x86)/atmel/atmel toolchain/avr8 gcc/native/3.4.1061/avr8-gnu-toolchain/bin/../lib/gcc/avr/4.8.1/../../../../avr/lib/avr6\libm.a
LOAD c:/program files (x86)/atmel/atmel toolchain/avr8 gcc/native/3.4.1061/avr8-gnu-toolchain/bin/../lib/gcc/avr/4.8.1/../../../../avr/lib/avr6\libc.a
END GROUP
OUTPUT(All_MegaRf_Atmega256rfr2_8Mhz_Gcc/Exe/App.elf elf32-avr)
LOAD linker stubs

.debug_info     0x00000000    0x19e41
 .debug_info    0x00000000     0x14cd All_MegaRf_Atmega256rfr2_8Mhz_Gcc/Obj/app.o
 .debug_info    0x000014cd      0xa60 All_MegaRf_Atmega256rfr2_8Mhz_Gcc/Obj/usartManager.o
 .debug_info    0x00001f2d      0xad4 All_MegaRf_Atmega256rfr2_8Mhz_Gcc/Obj/stdPdsMemAccess.o
 .debug_info    0x00002a01      0x5c8 All_MegaRf_Atmega256rfr2_8Mhz_Gcc/Obj/stdPdsTimer.o
 .debug_info    0x00002fc9      0x481 All_MegaRf_Atmega256rfr2_8Mhz_Gcc/Obj/stdPdsMem.o
 .debug_info    0x0000344a      0xdfb All_MegaRf_Atmega256rfr2_8Mhz_Gcc/Obj/stdPdsWriteData.o
 .debug_info    0x00004245      0x7e9 All_MegaRf_Atmega256rfr2_8Mhz_Gcc/Obj/stdPdsCrcService.o
 .debug_info    0x00004a2e      0x86c All_MegaRf_Atmega256rfr2_8Mhz_Gcc/Obj/stdPdsInit.o
 .debug_info    0x0000529a     0x119c All_MegaRf_Atmega256rfr2_8Mhz_Gcc/Obj/stdPdsDataServer.o
 .debug_info    0x00006436      0x9ca All_MegaRf_Atmega256rfr2_8Mhz_Gcc/Obj/sysIdleHandler.o
 .debug_info    0x00006e00      0x134 All_MegaRf_Atmega256rfr2_8Mhz_Gcc/Obj/sysSleep.o
 .debug_info    0x00006f34      0x601 All_MegaRf_Atmega256rfr2_8Mhz_Gcc/Obj/sysEventsHandler.o
 .debug_info    0x00007535      0x2eb All_MegaRf_Atmega256rfr2_8Mhz_Gcc/Obj/sysQueue.o
 .debug_info    0x00007820      0xcaf All_MegaRf_Atmega256rfr2_8Mhz_Gcc/Obj/sysUtils.o
 .debug_info    0x000084cf      0x1b7 All_MegaRf_Atmega256rfr2_8Mhz_Gcc/Obj/sysAssert.o
 .debug_info    0x00008686      0x4b6 All_MegaRf_Atmega256rfr2_8Mhz_Gcc/Obj/sysDuplicateTable.o
 .debug_info    0x00008b3c       0xc3 All_MegaRf_Atmega256rfr2_8Mhz_Gcc/Obj/sysInit.o
 .debug_info    0x00008bff      0x664 All_MegaRf_Atmega256rfr2_8Mhz_Gcc/Obj/sysTaskManager.o
 .debug_info    0x00009263      0x303 All_MegaRf_Atmega256rfr2_8Mhz_Gcc/Obj/sysTimer.o
 .debug_info    0x00009566       0xc6 All_MegaRf_Atmega256rfr2_8Mhz_Gcc/Obj/bspTaskManager.o
 .debug_info    0x0000962c      0x30b All_MegaRf_Atmega256rfr2_8Mhz_Gcc/Obj/leds.o
 .debug_info    0x00009937     0x55f1 All_MegaRf_Atmega256rfr2_8Mhz_Gcc/Obj/csPersistentMem.o
 .debug_info    0x0000ef28     0x5674 All_MegaRf_Atmega256rfr2_8Mhz_Gcc/Obj/csMem.o
 .debug_info    0x0001459c     0x58a5 All_MegaRf_Atmega256rfr2_8Mhz_Gcc/Obj/configServer.o

.debug_abbrev   0x00000000     0x3062
 .debug_abbrev  0x00000000      0x356 All_MegaRf_Atmega256rfr2_8Mhz_Gcc/Obj/app.o
 .debug_abbrev  0x00000356      0x2c2 All_MegaRf_Atmega256rfr2_8Mhz_Gcc/Obj/usartManager.o
 .debug_abbrev  0x00000618      0x28c All_MegaRf_Atmega256rfr2_8Mhz_Gcc/Obj/stdPdsMemAccess.o
 .debug_abbrev  0x000008a4      0x18d All_MegaRf_Atmega256rfr2_8Mhz_Gcc/Obj/stdPdsTimer.o
 .debug_abbrev  0x00000a31       0xdc All_MegaRf_Atmega256rfr2_8Mhz_Gcc/Obj/stdPdsMem.o
 .debug_abbrev  0x00000b0d      0x308 All_MegaRf_Atmega256rfr2_8Mhz_Gcc/Obj/stdPdsWriteData.o
 .debug_abbrev  0x00000e15      0x1ea All_MegaRf_Atmega256rfr2_8Mhz_Gcc/Obj/stdPdsCrcService.o
 .debug_abbrev  0x00000fff      0x21b All_MegaRf_Atmega256rfr2_8Mhz_Gcc/Obj/stdPdsInit.o
 .debug_abbrev  0x0000121a      0x360 All_MegaRf_Atmega256rfr2_8Mhz_Gcc/Obj/stdPdsDataServer.o
 .debug_abbrev  0x0000157a      0x206 All_MegaRf_Atmega256rfr2_8Mhz_Gcc/Obj/sysIdleHandler.o
 .debug_abbrev  0x00001780       0xce All_MegaRf_Atmega256rfr2_8Mhz_Gcc/Obj/sysSleep.o
 .debug_abbrev  0x0000184e      0x233 All_MegaRf_Atmega256rfr2_8Mhz_Gcc/Obj/sysEventsHandler.o
 .debug_abbrev  0x00001a81      0x16e All_MegaRf_Atmega256rfr2_8Mhz_Gcc/Obj/sysQueue.o
 .debug_abbrev  0x00001bef      0x2c8 All_MegaRf_Atmega256rfr2_8Mhz_Gcc/Obj/sysUtils.o
 .debug_abbrev  0x00001eb7       0xf1 All_MegaRf_Atmega256rfr2_8Mhz_Gcc/Obj/sysAssert.o
 .debug_abbrev  0x00001fa8      0x20e All_MegaRf_Atmega256rfr2_8Mhz_Gcc/Obj/sysDuplicateTable.o
 .debug_abbrev  0x000021b6       0x7a All_MegaRf_Atmega256rfr2_8Mhz_Gcc/Obj/sysInit.o
 .debug_abbrev  0x00002230      0x24c All_MegaRf_Atmega256rfr2_8Mhz_Gcc/Obj/sysTaskManager.o
 .debug_abbrev  0x0000247c      0x150 All_MegaRf_Atmega256rfr2_8Mhz_Gcc/Obj/sysTimer.o
 .debug_abbrev  0x000025cc       0x69 All_MegaRf_Atmega256rfr2_8Mhz_Gcc/Obj/bspTaskManager.o
 .debug_abbrev  0x00002635      0x157 All_MegaRf_Atmega256rfr2_8Mhz_Gcc/Obj/leds.o
 .debug_abbrev  0x0000278c      0x238 All_MegaRf_Atmega256rfr2_8Mhz_Gcc/Obj/csPersistentMem.o
 .debug_abbrev  0x000029c4      0x294 All_MegaRf_Atmega256rfr2_8Mhz_Gcc/Obj/csMem.o
 .debug_abbrev  0x00002c58      0x40a All_MegaRf_Atmega256rfr2_8Mhz_Gcc/Obj/configServer.o

.debug_loc      0x00000000     0x2e0c
 .debug_loc     0x00000000       0x90 All_MegaRf_Atmega256rfr2_8Mhz_Gcc/Obj/app.o
 .debug_loc     0x00000090      0x851 All_MegaRf_Atmega256rfr2_8Mhz_Gcc/Obj/usartManager.o
 .debug_loc     0x000008e1      0x43e All_MegaRf_Atmega256rfr2_8Mhz_Gcc/Obj/stdPdsMemAccess.o
 .debug_loc     0x00000d1f       0xdb All_MegaRf_Atmega256rfr2_8Mhz_Gcc/Obj/stdPdsTimer.o
 .debug_loc     0x00000dfa      0x2cf All_MegaRf_Atmega256rfr2_8Mhz_Gcc/Obj/stdPdsWriteData.o
 .debug_loc     0x000010c9      0x1c1 All_MegaRf_Atmega256rfr2_8Mhz_Gcc/Obj/stdPdsCrcService.o
 .debug_loc     0x0000128a      0x1b1 All_MegaRf_Atmega256rfr2_8Mhz_Gcc/Obj/stdPdsInit.o
 .debug_loc     0x0000143b      0x54a All_MegaRf_Atmega256rfr2_8Mhz_Gcc/Obj/stdPdsDataServer.o
 .debug_loc     0x00001985       0x21 All_MegaRf_Atmega256rfr2_8Mhz_Gcc/Obj/sysIdleHandler.o
 .debug_loc     0x000019a6       0x26 All_MegaRf_Atmega256rfr2_8Mhz_Gcc/Obj/sysSleep.o
 .debug_loc     0x000019cc      0x3c4 All_MegaRf_Atmega256rfr2_8Mhz_Gcc/Obj/sysEventsHandler.o
 .debug_loc     0x00001d90      0x1e1 All_MegaRf_Atmega256rfr2_8Mhz_Gcc/Obj/sysQueue.o
 .debug_loc     0x00001f71      0x439 All_MegaRf_Atmega256rfr2_8Mhz_Gcc/Obj/sysUtils.o
 .debug_loc     0x000023aa      0x417 All_MegaRf_Atmega256rfr2_8Mhz_Gcc/Obj/sysDuplicateTable.o
 .debug_loc     0x000027c1       0xc6 All_MegaRf_Atmega256rfr2_8Mhz_Gcc/Obj/sysTaskManager.o
 .debug_loc     0x00002887       0xfc All_MegaRf_Atmega256rfr2_8Mhz_Gcc/Obj/sysTimer.o
 .debug_loc     0x00002983       0x67 All_MegaRf_Atmega256rfr2_8Mhz_Gcc/Obj/leds.o
 .debug_loc     0x000029ea      0x422 All_MegaRf_Atmega256rfr2_8Mhz_Gcc/Obj/configServer.o

.debug_aranges  0x00000000      0x5d8
 .debug_aranges
                0x00000000       0x58 All_MegaRf_Atmega256rfr2_8Mhz_Gcc/Obj/app.o
 .debug_aranges
                0x00000058       0x78 All_MegaRf_Atmega256rfr2_8Mhz_Gcc/Obj/usartManager.o
 .debug_aranges
                0x000000d0       0x48 All_MegaRf_Atmega256rfr2_8Mhz_Gcc/Obj/stdPdsMemAccess.o
 .debug_aranges
                0x00000118       0x40 All_MegaRf_Atmega256rfr2_8Mhz_Gcc/Obj/stdPdsTimer.o
 .debug_aranges
                0x00000158       0x18 All_MegaRf_Atmega256rfr2_8Mhz_Gcc/Obj/stdPdsMem.o
 .debug_aranges
                0x00000170       0x58 All_MegaRf_Atmega256rfr2_8Mhz_Gcc/Obj/stdPdsWriteData.o
 .debug_aranges
                0x000001c8       0x30 All_MegaRf_Atmega256rfr2_8Mhz_Gcc/Obj/stdPdsCrcService.o
 .debug_aranges
                0x000001f8       0x20 All_MegaRf_Atmega256rfr2_8Mhz_Gcc/Obj/stdPdsInit.o
 .debug_aranges
                0x00000218       0xa0 All_MegaRf_Atmega256rfr2_8Mhz_Gcc/Obj/stdPdsDataServer.o
 .debug_aranges
                0x000002b8       0x40 All_MegaRf_Atmega256rfr2_8Mhz_Gcc/Obj/sysIdleHandler.o
 .debug_aranges
                0x000002f8       0x20 All_MegaRf_Atmega256rfr2_8Mhz_Gcc/Obj/sysSleep.o
 .debug_aranges
                0x00000318       0x40 All_MegaRf_Atmega256rfr2_8Mhz_Gcc/Obj/sysEventsHandler.o
 .debug_aranges
                0x00000358       0x38 All_MegaRf_Atmega256rfr2_8Mhz_Gcc/Obj/sysQueue.o
 .debug_aranges
                0x00000390       0x50 All_MegaRf_Atmega256rfr2_8Mhz_Gcc/Obj/sysUtils.o
 .debug_aranges
                0x000003e0       0x38 All_MegaRf_Atmega256rfr2_8Mhz_Gcc/Obj/sysAssert.o
 .debug_aranges
                0x00000418       0x38 All_MegaRf_Atmega256rfr2_8Mhz_Gcc/Obj/sysDuplicateTable.o
 .debug_aranges
                0x00000450       0x30 All_MegaRf_Atmega256rfr2_8Mhz_Gcc/Obj/sysInit.o
 .debug_aranges
                0x00000480       0x40 All_MegaRf_Atmega256rfr2_8Mhz_Gcc/Obj/sysTaskManager.o
 .debug_aranges
                0x000004c0       0x30 All_MegaRf_Atmega256rfr2_8Mhz_Gcc/Obj/sysTimer.o
 .debug_aranges
                0x000004f0       0x20 All_MegaRf_Atmega256rfr2_8Mhz_Gcc/Obj/bspTaskManager.o
 .debug_aranges
                0x00000510       0x40 All_MegaRf_Atmega256rfr2_8Mhz_Gcc/Obj/leds.o
 .debug_aranges
                0x00000550       0x18 All_MegaRf_Atmega256rfr2_8Mhz_Gcc/Obj/csPersistentMem.o
 .debug_aranges
                0x00000568       0x20 All_MegaRf_Atmega256rfr2_8Mhz_Gcc/Obj/csMem.o
 .debug_aranges
                0x00000588       0x50 All_MegaRf_Atmega256rfr2_8Mhz_Gcc/Obj/configServer.o

.debug_ranges   0x00000000      0x518
 .debug_ranges  0x00000000       0x48 All_MegaRf_Atmega256rfr2_8Mhz_Gcc/Obj/app.o
 .debug_ranges  0x00000048       0x68 All_MegaRf_Atmega256rfr2_8Mhz_Gcc/Obj/usartManager.o
 .debug_ranges  0x000000b0       0x88 All_MegaRf_Atmega256rfr2_8Mhz_Gcc/Obj/stdPdsMemAccess.o
 .debug_ranges  0x00000138       0x30 All_MegaRf_Atmega256rfr2_8Mhz_Gcc/Obj/stdPdsTimer.o
 .debug_ranges  0x00000168       0x80 All_MegaRf_Atmega256rfr2_8Mhz_Gcc/Obj/stdPdsWriteData.o
 .debug_ranges  0x000001e8       0x38 All_MegaRf_Atmega256rfr2_8Mhz_Gcc/Obj/stdPdsCrcService.o
 .debug_ranges  0x00000220       0x10 All_MegaRf_Atmega256rfr2_8Mhz_Gcc/Obj/stdPdsInit.o
 .debug_ranges  0x00000230       0xa8 All_MegaRf_Atmega256rfr2_8Mhz_Gcc/Obj/stdPdsDataServer.o
 .debug_ranges  0x000002d8       0x30 All_MegaRf_Atmega256rfr2_8Mhz_Gcc/Obj/sysIdleHandler.o
 .debug_ranges  0x00000308       0x10 All_MegaRf_Atmega256rfr2_8Mhz_Gcc/Obj/sysSleep.o
 .debug_ranges  0x00000318       0x30 All_MegaRf_Atmega256rfr2_8Mhz_Gcc/Obj/sysEventsHandler.o
 .debug_ranges  0x00000348       0x40 All_MegaRf_Atmega256rfr2_8Mhz_Gcc/Obj/sysQueue.o
 .debug_ranges  0x00000388       0x40 All_MegaRf_Atmega256rfr2_8Mhz_Gcc/Obj/sysUtils.o
 .debug_ranges  0x000003c8       0x28 All_MegaRf_Atmega256rfr2_8Mhz_Gcc/Obj/sysAssert.o
 .debug_ranges  0x000003f0       0x28 All_MegaRf_Atmega256rfr2_8Mhz_Gcc/Obj/sysDuplicateTable.o
 .debug_ranges  0x00000418       0x20 All_MegaRf_Atmega256rfr2_8Mhz_Gcc/Obj/sysInit.o
 .debug_ranges  0x00000438       0x30 All_MegaRf_Atmega256rfr2_8Mhz_Gcc/Obj/sysTaskManager.o
 .debug_ranges  0x00000468       0x20 All_MegaRf_Atmega256rfr2_8Mhz_Gcc/Obj/sysTimer.o
 .debug_ranges  0x00000488       0x10 All_MegaRf_Atmega256rfr2_8Mhz_Gcc/Obj/bspTaskManager.o
 .debug_ranges  0x00000498       0x30 All_MegaRf_Atmega256rfr2_8Mhz_Gcc/Obj/leds.o
 .debug_ranges  0x000004c8       0x10 All_MegaRf_Atmega256rfr2_8Mhz_Gcc/Obj/csMem.o
 .debug_ranges  0x000004d8       0x40 All_MegaRf_Atmega256rfr2_8Mhz_Gcc/Obj/configServer.o

.debug_line     0x00000000     0x5e29
 .debug_line    0x00000000      0x51a All_MegaRf_Atmega256rfr2_8Mhz_Gcc/Obj/app.o
 .debug_line    0x0000051a      0x55e All_MegaRf_Atmega256rfr2_8Mhz_Gcc/Obj/usartManager.o
 .debug_line    0x00000a78      0x5d2 All_MegaRf_Atmega256rfr2_8Mhz_Gcc/Obj/stdPdsMemAccess.o
 .debug_line    0x0000104a      0x315 All_MegaRf_Atmega256rfr2_8Mhz_Gcc/Obj/stdPdsTimer.o
 .debug_line    0x0000135f      0x202 All_MegaRf_Atmega256rfr2_8Mhz_Gcc/Obj/stdPdsMem.o
 .debug_line    0x00001561      0x4e3 All_MegaRf_Atmega256rfr2_8Mhz_Gcc/Obj/stdPdsWriteData.o
 .debug_line    0x00001a44      0x333 All_MegaRf_Atmega256rfr2_8Mhz_Gcc/Obj/stdPdsCrcService.o
 .debug_line    0x00001d77      0x474 All_MegaRf_Atmega256rfr2_8Mhz_Gcc/Obj/stdPdsInit.o
 .debug_line    0x000021eb      0x664 All_MegaRf_Atmega256rfr2_8Mhz_Gcc/Obj/stdPdsDataServer.o
 .debug_line    0x0000284f      0x34f All_MegaRf_Atmega256rfr2_8Mhz_Gcc/Obj/sysIdleHandler.o
 .debug_line    0x00002b9e      0x11d All_MegaRf_Atmega256rfr2_8Mhz_Gcc/Obj/sysSleep.o
 .debug_line    0x00002cbb      0x2dd All_MegaRf_Atmega256rfr2_8Mhz_Gcc/Obj/sysEventsHandler.o
 .debug_line    0x00002f98      0x24a All_MegaRf_Atmega256rfr2_8Mhz_Gcc/Obj/sysQueue.o
 .debug_line    0x000031e2      0x510 All_MegaRf_Atmega256rfr2_8Mhz_Gcc/Obj/sysUtils.o
 .debug_line    0x000036f2      0x1b0 All_MegaRf_Atmega256rfr2_8Mhz_Gcc/Obj/sysAssert.o
 .debug_line    0x000038a2      0x35d All_MegaRf_Atmega256rfr2_8Mhz_Gcc/Obj/sysDuplicateTable.o
 .debug_line    0x00003bff       0xdb All_MegaRf_Atmega256rfr2_8Mhz_Gcc/Obj/sysInit.o
 .debug_line    0x00003cda      0x33a All_MegaRf_Atmega256rfr2_8Mhz_Gcc/Obj/sysTaskManager.o
 .debug_line    0x00004014      0x1ff All_MegaRf_Atmega256rfr2_8Mhz_Gcc/Obj/sysTimer.o
 .debug_line    0x00004213      0x173 All_MegaRf_Atmega256rfr2_8Mhz_Gcc/Obj/bspTaskManager.o
 .debug_line    0x00004386      0x245 All_MegaRf_Atmega256rfr2_8Mhz_Gcc/Obj/leds.o
 .debug_line    0x000045cb      0x6c9 All_MegaRf_Atmega256rfr2_8Mhz_Gcc/Obj/csPersistentMem.o
 .debug_line    0x00004c94      0x7b4 All_MegaRf_Atmega256rfr2_8Mhz_Gcc/Obj/csMem.o
 .debug_line    0x00005448      0x9e1 All_MegaRf_Atmega256rfr2_8Mhz_Gcc/Obj/configServer.o

.debug_str      0x00000000     0x90fc
 .debug_str     0x00000000     0x1c8a All_MegaRf_Atmega256rfr2_8Mhz_Gcc/Obj/app.o
                               0x1d08 (size before relaxing)
 .debug_str     0x00001c8a      0x162 All_MegaRf_Atmega256rfr2_8Mhz_Gcc/Obj/usartManager.o
                                0x73c (size before relaxing)
 .debug_str     0x00001dec      0x80b All_MegaRf_Atmega256rfr2_8Mhz_Gcc/Obj/stdPdsMemAccess.o
                                0xd0c (size before relaxing)
 .debug_str     0x000025f7       0xb1 All_MegaRf_Atmega256rfr2_8Mhz_Gcc/Obj/stdPdsTimer.o
                                0x97a (size before relaxing)
 .debug_str     0x000026a8       0x46 All_MegaRf_Atmega256rfr2_8Mhz_Gcc/Obj/stdPdsMem.o
                                0x8f3 (size before relaxing)
 .debug_str     0x000026ee      0x8b6 All_MegaRf_Atmega256rfr2_8Mhz_Gcc/Obj/stdPdsWriteData.o
                               0x12bd (size before relaxing)
 .debug_str     0x00002fa4       0x6f All_MegaRf_Atmega256rfr2_8Mhz_Gcc/Obj/stdPdsCrcService.o
                                0xaac (size before relaxing)
 .debug_str     0x00003013       0xc2 All_MegaRf_Atmega256rfr2_8Mhz_Gcc/Obj/stdPdsInit.o
                                0xc4b (size before relaxing)
 .debug_str     0x000030d5      0x1d4 All_MegaRf_Atmega256rfr2_8Mhz_Gcc/Obj/stdPdsDataServer.o
                                0xe4a (size before relaxing)
 .debug_str     0x000032a9      0x132 All_MegaRf_Atmega256rfr2_8Mhz_Gcc/Obj/sysIdleHandler.o
                               0x1455 (size before relaxing)
 .debug_str     0x000033db       0xa0 All_MegaRf_Atmega256rfr2_8Mhz_Gcc/Obj/sysSleep.o
                                0x1e8 (size before relaxing)
 .debug_str     0x0000347b      0x2f1 All_MegaRf_Atmega256rfr2_8Mhz_Gcc/Obj/sysEventsHandler.o
                                0x4d4 (size before relaxing)
 .debug_str     0x0000376c       0x99 All_MegaRf_Atmega256rfr2_8Mhz_Gcc/Obj/sysQueue.o
                                0x39e (size before relaxing)
 .debug_str     0x00003805      0x241 All_MegaRf_Atmega256rfr2_8Mhz_Gcc/Obj/sysUtils.o
                               0x1178 (size before relaxing)
 .debug_str     0x00003a46       0xd0 All_MegaRf_Atmega256rfr2_8Mhz_Gcc/Obj/sysAssert.o
                                0x24d (size before relaxing)
 .debug_str     0x00003b16      0x1df All_MegaRf_Atmega256rfr2_8Mhz_Gcc/Obj/sysDuplicateTable.o
                                0x579 (size before relaxing)
 .debug_str     0x00003cf5       0x71 All_MegaRf_Atmega256rfr2_8Mhz_Gcc/Obj/sysInit.o
                                0x1b9 (size before relaxing)
 .debug_str     0x00003d66       0xce All_MegaRf_Atmega256rfr2_8Mhz_Gcc/Obj/sysTaskManager.o
                                0xc58 (size before relaxing)
 .debug_str     0x00003e34       0xc6 All_MegaRf_Atmega256rfr2_8Mhz_Gcc/Obj/sysTimer.o
                                0x319 (size before relaxing)
 .debug_str     0x00003efa       0x5d All_MegaRf_Atmega256rfr2_8Mhz_Gcc/Obj/bspTaskManager.o
                                0x1b7 (size before relaxing)
 .debug_str     0x00003f57      0x12a All_MegaRf_Atmega256rfr2_8Mhz_Gcc/Obj/leds.o
                                0x28c (size before relaxing)
 .debug_str     0x00004081     0x4975 All_MegaRf_Atmega256rfr2_8Mhz_Gcc/Obj/csPersistentMem.o
                               0x6454 (size before relaxing)
 .debug_str     0x000089f6      0x55f All_MegaRf_Atmega256rfr2_8Mhz_Gcc/Obj/csMem.o
                               0x5fea (size before relaxing)
 .debug_str     0x00008f55      0x1a7 All_MegaRf_Atmega256rfr2_8Mhz_Gcc/Obj/configServer.o
                               0x670b (size before relaxing)

.comment        0x00000000       0x30
 .comment       0x00000000       0x30 All_MegaRf_Atmega256rfr2_8Mhz_Gcc/Obj/app.o
                                 0x31 (size before relaxing)
 .comment       0x00000000       0x31 All_MegaRf_Atmega256rfr2_8Mhz_Gcc/Obj/usartManager.o
 .comment       0x00000000       0x31 All_MegaRf_Atmega256rfr2_8Mhz_Gcc/Obj/stdPdsMemAccess.o
 .comment       0x00000000       0x31 All_MegaRf_Atmega256rfr2_8Mhz_Gcc/Obj/stdPdsTimer.o
 .comment       0x00000000       0x31 All_MegaRf_Atmega256rfr2_8Mhz_Gcc/Obj/stdPdsMem.o
 .comment       0x00000000       0x31 All_MegaRf_Atmega256rfr2_8Mhz_Gcc/Obj/stdPdsWriteData.o
 .comment       0x00000000       0x31 All_MegaRf_Atmega256rfr2_8Mhz_Gcc/Obj/stdPdsCrcService.o
 .comment       0x00000000       0x31 All_MegaRf_Atmega256rfr2_8Mhz_Gcc/Obj/stdPdsInit.o
 .comment       0x00000000       0x31 All_MegaRf_Atmega256rfr2_8Mhz_Gcc/Obj/stdPdsDataServer.o
 .comment       0x00000000       0x31 All_MegaRf_Atmega256rfr2_8Mhz_Gcc/Obj/sysIdleHandler.o
 .comment       0x00000000       0x31 All_MegaRf_Atmega256rfr2_8Mhz_Gcc/Obj/sysSleep.o
 .comment       0x00000000       0x31 All_MegaRf_Atmega256rfr2_8Mhz_Gcc/Obj/sysEventsHandler.o
 .comment       0x00000000       0x31 All_MegaRf_Atmega256rfr2_8Mhz_Gcc/Obj/sysQueue.o
 .comment       0x00000000       0x31 All_MegaRf_Atmega256rfr2_8Mhz_Gcc/Obj/sysUtils.o
 .comment       0x00000000       0x31 All_MegaRf_Atmega256rfr2_8Mhz_Gcc/Obj/sysAssert.o
 .comment       0x00000000       0x31 All_MegaRf_Atmega256rfr2_8Mhz_Gcc/Obj/sysDuplicateTable.o
 .comment       0x00000000       0x31 All_MegaRf_Atmega256rfr2_8Mhz_Gcc/Obj/sysInit.o
 .comment       0x00000000       0x31 All_MegaRf_Atmega256rfr2_8Mhz_Gcc/Obj/sysTaskManager.o
 .comment       0x00000000       0x31 All_MegaRf_Atmega256rfr2_8Mhz_Gcc/Obj/sysTimer.o
 .comment       0x00000000       0x31 All_MegaRf_Atmega256rfr2_8Mhz_Gcc/Obj/bspTaskManager.o
 .comment       0x00000000       0x31 All_MegaRf_Atmega256rfr2_8Mhz_Gcc/Obj/leds.o
 .comment       0x00000000       0x31 All_MegaRf_Atmega256rfr2_8Mhz_Gcc/Obj/csPersistentMem.o
 .comment       0x00000000       0x31 All_MegaRf_Atmega256rfr2_8Mhz_Gcc/Obj/csMem.o
 .comment       0x00000000       0x31 All_MegaRf_Atmega256rfr2_8Mhz_Gcc/Obj/configServer.o
 .comment       0x00000000       0x31 ../../../../BitCloud/lib/libBc_All_Atmega256rfr2_Atmega256rfr2_Gcc.a(aps.o)
 .comment       0x00000000       0x31 ../../../../BitCloud/lib/libBc_All_Atmega256rfr2_Atmega256rfr2_Gcc.a(macenvPib.o)
 .comment       0x00000000       0x31 ../../../../BitCloud/lib/libBc_All_Atmega256rfr2_Atmega256rfr2_Gcc.a(machwdManager.o)
 .comment       0x00000000       0x31 ../../../../BitCloud/lib/libBc_All_Atmega256rfr2_Atmega256rfr2_Gcc.a(machwdRegAccessHandler.o)
 .comment       0x00000000       0x31 ../../../../BitCloud/lib/libBc_All_Atmega256rfr2_Atmega256rfr2_Gcc.a(machwdResetHandler.o)
 .comment       0x00000000       0x31 ../../../../BitCloud/lib/libBc_All_Atmega256rfr2_Atmega256rfr2_Gcc.a(machwdRndHandler.o)
 .comment       0x00000000       0x31 ../../../../BitCloud/lib/libBc_All_Atmega256rfr2_Atmega256rfr2_Gcc.a(machwdRxBuffer.o)
 .comment       0x00000000       0x31 ../../../../BitCloud/lib/libBc_All_Atmega256rfr2_Atmega256rfr2_Gcc.a(machwdRxFrameHandler.o)
 .comment       0x00000000       0x31 ../../../../BitCloud/lib/libBc_All_Atmega256rfr2_Atmega256rfr2_Gcc.a(machwdSetHandler.o)
 .comment       0x00000000       0x31 ../../../../BitCloud/lib/libBc_All_Atmega256rfr2_Atmega256rfr2_Gcc.a(machwdTrxCtrl.o)
 .comment       0x00000000       0x31 ../../../../BitCloud/lib/libBc_All_Atmega256rfr2_Atmega256rfr2_Gcc.a(machwdTrxHandler.o)
 .comment       0x00000000       0x31 ../../../../BitCloud/lib/libBc_All_Atmega256rfr2_Atmega256rfr2_Gcc.a(machwdTxFrameHandler.o)
 .comment       0x00000000       0x31 ../../../../BitCloud/lib/libBc_All_Atmega256rfr2_Atmega256rfr2_Gcc.a(machwiManager.o)
 .comment       0x00000000       0x31 ../../../../BitCloud/lib/libBc_All_Atmega256rfr2_Atmega256rfr2_Gcc.a(machwiOrphanHandler.o)
 .comment       0x00000000       0x31 ../../../../BitCloud/lib/libBc_All_Atmega256rfr2_Atmega256rfr2_Gcc.a(machwiPanServer.o)
 .comment       0x00000000       0x31 ../../../../BitCloud/lib/libBc_All_Atmega256rfr2_Atmega256rfr2_Gcc.a(machwiPollHandler.o)
 .comment       0x00000000       0x31 ../../../../BitCloud/lib/libBc_All_Atmega256rfr2_Atmega256rfr2_Gcc.a(machwiPurgeHandler.o)
 .comment       0x00000000       0x31 ../../../../BitCloud/lib/libBc_All_Atmega256rfr2_Atmega256rfr2_Gcc.a(machwiResetHandler.o)
 .comment       0x00000000       0x31 ../../../../BitCloud/lib/libBc_All_Atmega256rfr2_Atmega256rfr2_Gcc.a(machwiRxEnableHandler.o)
 .comment       0x00000000       0x31 ../../../../BitCloud/lib/libBc_All_Atmega256rfr2_Atmega256rfr2_Gcc.a(machwiScanHandler.o)
 .comment       0x00000000       0x31 ../../../../BitCloud/lib/libBc_All_Atmega256rfr2_Atmega256rfr2_Gcc.a(machwiSetGetHandler.o)
 .comment       0x00000000       0x31 ../../../../BitCloud/lib/libBc_All_Atmega256rfr2_Atmega256rfr2_Gcc.a(machwiStartHandler.o)
 .comment       0x00000000       0x31 ../../../../BitCloud/lib/libBc_All_Atmega256rfr2_Atmega256rfr2_Gcc.a(machwiSwitchRxCtrl.o)
 .comment       0x00000000       0x31 ../../../../BitCloud/lib/libBc_All_Atmega256rfr2_Atmega256rfr2_Gcc.a(machwiTransactionHandler.o)
 .comment       0x00000000       0x31 ../../../../BitCloud/lib/libBc_All_Atmega256rfr2_Atmega256rfr2_Gcc.a(machwiTransactionQueue.o)
 .comment       0x00000000       0x31 ../../../../BitCloud/lib/libBc_All_Atmega256rfr2_Atmega256rfr2_Gcc.a(nwk.o)
 .comment       0x00000000       0x31 ../../../../BitCloud/lib/libBc_All_Atmega256rfr2_Atmega256rfr2_Gcc.a(phyAntDiversity.o)
 .comment       0x00000000       0x31 ../../../../BitCloud/lib/libBc_All_Atmega256rfr2_Atmega256rfr2_Gcc.a(phyInit.o)
 .comment       0x00000000       0x31 ../../../../BitCloud/lib/libBc_All_Atmega256rfr2_Atmega256rfr2_Gcc.a(phyRegAccess.o)
 .comment       0x00000000       0x31 ../../../../BitCloud/lib/libBc_All_Atmega256rfr2_Atmega256rfr2_Gcc.a(phyReset.o)
 .comment       0x00000000       0x31 ../../../../BitCloud/lib/libBc_All_Atmega256rfr2_Atmega256rfr2_Gcc.a(phyRfIrqDispatcher.o)
 .comment       0x00000000       0x31 ../../../../BitCloud/lib/libBc_All_Atmega256rfr2_Atmega256rfr2_Gcc.a(phyRnd.o)
 .comment       0x00000000       0x31 ../../../../BitCloud/lib/libBc_All_Atmega256rfr2_Atmega256rfr2_Gcc.a(phySet.o)
 .comment       0x00000000       0x31 ../../../../BitCloud/lib/libBc_All_Atmega256rfr2_Atmega256rfr2_Gcc.a(phySetTrxState.o)
 .comment       0x00000000       0x31 ../../../../BitCloud/lib/libBc_All_Atmega256rfr2_Atmega256rfr2_Gcc.a(phyStateMachine.o)
 .comment       0x00000000       0x31 ../../../../BitCloud/lib/libBc_All_Atmega256rfr2_Atmega256rfr2_Gcc.a(phyTxFrame.o)
 .comment       0x00000000       0x31 ../../../../BitCloud/lib/libBc_All_Atmega256rfr2_Atmega256rfr2_Gcc.a(phyTxPowerConverter.o)
 .comment       0x00000000       0x31 ../../../../BitCloud/lib/libBc_All_Atmega256rfr2_Atmega256rfr2_Gcc.a(zdo.o)
 .comment       0x00000000       0x31 ../../../../BitCloud/lib/libBc_All_Atmega256rfr2_Atmega256rfr2_Gcc.a(macMem.o)
 .comment       0x00000000       0x31 ../../../../BitCloud/lib/libBc_All_Atmega256rfr2_Atmega256rfr2_Gcc.a(machwdBatMonHandler.o)
 .comment       0x00000000       0x31 ../../../../BitCloud/lib/libBc_All_Atmega256rfr2_Atmega256rfr2_Gcc.a(machwdCalibHandler.o)
 .comment       0x00000000       0x31 ../../../../BitCloud/lib/libBc_All_Atmega256rfr2_Atmega256rfr2_Gcc.a(machwdEdHandler.o)
 .comment       0x00000000       0x31 ../../../../BitCloud/lib/libBc_All_Atmega256rfr2_Atmega256rfr2_Gcc.a(machwdFrameRoutine.o)
 .comment       0x00000000       0x31 ../../../../BitCloud/lib/libBc_All_Atmega256rfr2_Atmega256rfr2_Gcc.a(machwdHandlerCtrl.o)
 .comment       0x00000000       0x31 ../../../../BitCloud/lib/libBc_All_Atmega256rfr2_Atmega256rfr2_Gcc.a(machwiAssociateHandler.o)
 .comment       0x00000000       0x31 ../../../../BitCloud/lib/libBc_All_Atmega256rfr2_Atmega256rfr2_Gcc.a(machwiBanNode.o)
 .comment       0x00000000       0x31 ../../../../BitCloud/lib/libBc_All_Atmega256rfr2_Atmega256rfr2_Gcc.a(machwiBeaconHandler.o)
 .comment       0x00000000       0x31 ../../../../BitCloud/lib/libBc_All_Atmega256rfr2_Atmega256rfr2_Gcc.a(machwiDataHandler.o)
 .comment       0x00000000       0x31 ../../../../BitCloud/lib/libBc_All_Atmega256rfr2_Atmega256rfr2_Gcc.a(machwiTransactionHash.o)
 .comment       0x00000000       0x31 ../../../../BitCloud/lib/libBc_All_Atmega256rfr2_Atmega256rfr2_Gcc.a(phyBatMon.o)
 .comment       0x00000000       0x31 ../../../../BitCloud/lib/libBc_All_Atmega256rfr2_Atmega256rfr2_Gcc.a(phyCalib.o)
 .comment       0x00000000       0x31 ../../../../BitCloud/lib/libBc_All_Atmega256rfr2_Atmega256rfr2_Gcc.a(phyEd.o)
 .comment       0x00000000       0x31 ../../../../BitCloud/lib/libBc_All_Atmega256rfr2_Atmega256rfr2_Gcc.a(phyRxTxIndicator.o)
 .comment       0x00000000       0x31 ../../../../BitCloud/lib/libHAL_MegaRf_Atmega256rfr2_8Mhz_Gcc.a(halDelay.o)
 .comment       0x00000000       0x31 ../../../../BitCloud/lib/libHAL_MegaRf_Atmega256rfr2_8Mhz_Gcc.a(halAppClock.o)
 .comment       0x00000000       0x31 ../../../../BitCloud/lib/libHAL_MegaRf_Atmega256rfr2_8Mhz_Gcc.a(halSleep.o)
 .comment       0x00000000       0x31 ../../../../BitCloud/lib/libHAL_MegaRf_Atmega256rfr2_8Mhz_Gcc.a(calibration.o)
 .comment       0x00000000       0x31 ../../../../BitCloud/lib/libHAL_MegaRf_Atmega256rfr2_8Mhz_Gcc.a(halInit.o)
 .comment       0x00000000       0x31 ../../../../BitCloud/lib/libHAL_MegaRf_Atmega256rfr2_8Mhz_Gcc.a(halRfCtrl.o)
 .comment       0x00000000       0x31 ../../../../BitCloud/lib/libHAL_MegaRf_Atmega256rfr2_8Mhz_Gcc.a(halMacIsr.o)
 .comment       0x00000000       0x31 ../../../../BitCloud/lib/libHAL_MegaRf_Atmega256rfr2_8Mhz_Gcc.a(appTimer.o)
 .comment       0x00000000       0x31 ../../../../BitCloud/lib/libHAL_MegaRf_Atmega256rfr2_8Mhz_Gcc.a(halTaskManager.o)
 .comment       0x00000000       0x31 ../../../../BitCloud/lib/libHAL_MegaRf_Atmega256rfr2_8Mhz_Gcc.a(usart.o)
 .comment       0x00000000       0x31 ../../../../BitCloud/lib/libHAL_MegaRf_Atmega256rfr2_8Mhz_Gcc.a(i2cPacket.o)
 .comment       0x00000000       0x31 ../../../../BitCloud/lib/libHAL_MegaRf_Atmega256rfr2_8Mhz_Gcc.a(eeprom.o)
 .comment       0x00000000       0x31 ../../../../BitCloud/lib/libHAL_MegaRf_Atmega256rfr2_8Mhz_Gcc.a(timer.o)
 .comment       0x00000000       0x31 ../../../../BitCloud/lib/libHAL_MegaRf_Atmega256rfr2_8Mhz_Gcc.a(adc.o)
 .comment       0x00000000       0x31 ../../../../BitCloud/lib/libHAL_MegaRf_Atmega256rfr2_8Mhz_Gcc.a(spi.o)
 .comment       0x00000000       0x31 ../../../../BitCloud/lib/libHAL_MegaRf_Atmega256rfr2_8Mhz_Gcc.a(sleep.o)
 .comment       0x00000000       0x31 ../../../../BitCloud/lib/libHAL_MegaRf_Atmega256rfr2_8Mhz_Gcc.a(halSleepTimerClock.o)
 .comment       0x00000000       0x31 ../../../../BitCloud/lib/libHAL_MegaRf_Atmega256rfr2_8Mhz_Gcc.a(halSecurityModule.o)
 .comment       0x00000000       0x31 ../../../../BitCloud/lib/libHAL_MegaRf_Atmega256rfr2_8Mhz_Gcc.a(halClkCtrl.o)
 .comment       0x00000000       0x31 ../../../../BitCloud/lib/libHAL_MegaRf_Atmega256rfr2_8Mhz_Gcc.a(halUsart.o)
 .comment       0x00000000       0x31 ../../../../BitCloud/lib/libHAL_MegaRf_Atmega256rfr2_8Mhz_Gcc.a(halIrq.o)
 .comment       0x00000000       0x31 ../../../../BitCloud/lib/libHAL_MegaRf_Atmega256rfr2_8Mhz_Gcc.a(halTwi.o)
 .comment       0x00000000       0x31 ../../../../BitCloud/lib/libHAL_MegaRf_Atmega256rfr2_8Mhz_Gcc.a(halEeprom.o)
 .comment       0x00000000       0x31 ../../../../BitCloud/lib/libHAL_MegaRf_Atmega256rfr2_8Mhz_Gcc.a(halAdc.o)
 .comment       0x00000000       0x31 ../../../../BitCloud/lib/libHAL_MegaRf_Atmega256rfr2_8Mhz_Gcc.a(halSpi.o)
 .comment       0x00000000       0x31 ../../../../BitCloud/lib/libHAL_MegaRf_Atmega256rfr2_8Mhz_Gcc.a(sleepTimer.o)
 .comment       0x00000000       0x31 ../../../../BitCloud/lib/WdtInitatmega256rfr2_Gcc.o
 .comment       0x00000000       0x31 ../../../../BitCloud/lib/libBc_All_Atmega256rfr2_Atmega256rfr2_Gcc.a(phyRtimerIrqDispatcher.o)
 .comment       0x00000000       0x31 c:/program files (x86)/atmel/atmel toolchain/avr8 gcc/native/3.4.1061/avr8-gnu-toolchain/bin/../lib/gcc/avr/4.8.1/../../../../avr/lib/avr6\libc.a(rand.o)

.debug_frame    0x00000000      0xc8c
 .debug_frame   0x00000000       0x94 All_MegaRf_Atmega256rfr2_8Mhz_Gcc/Obj/app.o
 .debug_frame   0x00000094      0x178 All_MegaRf_Atmega256rfr2_8Mhz_Gcc/Obj/usartManager.o
 .debug_frame   0x0000020c       0xf0 All_MegaRf_Atmega256rfr2_8Mhz_Gcc/Obj/stdPdsMemAccess.o
 .debug_frame   0x000002fc       0x84 All_MegaRf_Atmega256rfr2_8Mhz_Gcc/Obj/stdPdsTimer.o
 .debug_frame   0x00000380       0xf8 All_MegaRf_Atmega256rfr2_8Mhz_Gcc/Obj/stdPdsWriteData.o
 .debug_frame   0x00000478       0x6c All_MegaRf_Atmega256rfr2_8Mhz_Gcc/Obj/stdPdsCrcService.o
 .debug_frame   0x000004e4       0x78 All_MegaRf_Atmega256rfr2_8Mhz_Gcc/Obj/stdPdsInit.o
 .debug_frame   0x0000055c      0x180 All_MegaRf_Atmega256rfr2_8Mhz_Gcc/Obj/stdPdsDataServer.o
 .debug_frame   0x000006dc       0x6c All_MegaRf_Atmega256rfr2_8Mhz_Gcc/Obj/sysIdleHandler.o
 .debug_frame   0x00000748       0x24 All_MegaRf_Atmega256rfr2_8Mhz_Gcc/Obj/sysSleep.o
 .debug_frame   0x0000076c       0x9c All_MegaRf_Atmega256rfr2_8Mhz_Gcc/Obj/sysEventsHandler.o
 .debug_frame   0x00000808       0x68 All_MegaRf_Atmega256rfr2_8Mhz_Gcc/Obj/sysQueue.o
 .debug_frame   0x00000870       0xc8 All_MegaRf_Atmega256rfr2_8Mhz_Gcc/Obj/sysUtils.o
 .debug_frame   0x00000938       0x54 All_MegaRf_Atmega256rfr2_8Mhz_Gcc/Obj/sysAssert.o
 .debug_frame   0x0000098c       0x8c All_MegaRf_Atmega256rfr2_8Mhz_Gcc/Obj/sysDuplicateTable.o
 .debug_frame   0x00000a18       0x44 All_MegaRf_Atmega256rfr2_8Mhz_Gcc/Obj/sysInit.o
 .debug_frame   0x00000a5c       0x70 All_MegaRf_Atmega256rfr2_8Mhz_Gcc/Obj/sysTaskManager.o
 .debug_frame   0x00000acc       0x54 All_MegaRf_Atmega256rfr2_8Mhz_Gcc/Obj/sysTimer.o
 .debug_frame   0x00000b20       0x24 All_MegaRf_Atmega256rfr2_8Mhz_Gcc/Obj/bspTaskManager.o
 .debug_frame   0x00000b44       0x64 All_MegaRf_Atmega256rfr2_8Mhz_Gcc/Obj/leds.o
 .debug_frame   0x00000ba8       0x24 All_MegaRf_Atmega256rfr2_8Mhz_Gcc/Obj/csMem.o
 .debug_frame   0x00000bcc       0xc0 All_MegaRf_Atmega256rfr2_8Mhz_Gcc/Obj/configServer.o
